
bl1.elf:     file format elf32-littlearm


Disassembly of section .text:

ffff0000 <.text>:
ffff0000:	ea000108 	b	0xffff0428
ffff0004:	eafffffe 	b	0xffff0004
ffff0008:	eafffffe 	b	0xffff0008
ffff000c:	eafffffe 	b	0xffff000c
ffff0010:	eafffffe 	b	0xffff0010
ffff0014:	eafffffe 	b	0xffff0014
ffff0018:	eafffffe 	b	0xffff0018
ffff001c:	eafffffe 	b	0xffff001c
ffff0020:	00000000 	andeq	r0, r0, r0
ffff0024:	00000000 	andeq	r0, r0, r0
ffff0028:	00000000 	andeq	r0, r0, r0
ffff002c:	00000000 	andeq	r0, r0, r0
ffff0030:	00000000 	andeq	r0, r0, r0
ffff0034:	00000000 	andeq	r0, r0, r0
ffff0038:	00000000 	andeq	r0, r0, r0
ffff003c:	00000000 	andeq	r0, r0, r0
ffff0040:	00010200 	andeq	r0, r1, r0, lsl #4
ffff0044:	00005430 	andeq	r5, r0, r0, lsr r4
ffff0048:	ffff0000 			; <UNDEFINED> instruction: 0xffff0000
ffff004c:	ffff0000 			; <UNDEFINED> instruction: 0xffff0000
ffff0050:	00000000 	andeq	r0, r0, r0
ffff0054:	03000000 	movweq	r0, #0
ffff0058:	02b4884f 	adcseq	r8, r4, #5177344	; 0x4f0000
ffff005c:	00000000 	andeq	r0, r0, r0
ffff0060:	00000000 	andeq	r0, r0, r0
ffff0064:	00000000 	andeq	r0, r0, r0
ffff0068:	00000000 	andeq	r0, r0, r0
ffff006c:	00000000 	andeq	r0, r0, r0
ffff0070:	00000000 	andeq	r0, r0, r0
ffff0074:	00000000 	andeq	r0, r0, r0
ffff0078:	00000000 	andeq	r0, r0, r0
ffff007c:	00000000 	andeq	r0, r0, r0
ffff0080:	00000000 	andeq	r0, r0, r0
ffff0084:	00000000 	andeq	r0, r0, r0
ffff0088:	00000000 	andeq	r0, r0, r0
ffff008c:	00000000 	andeq	r0, r0, r0
ffff0090:	00000000 	andeq	r0, r0, r0
ffff0094:	00000000 	andeq	r0, r0, r0
ffff0098:	00000000 	andeq	r0, r0, r0
ffff009c:	00000000 	andeq	r0, r0, r0
ffff00a0:	00000000 	andeq	r0, r0, r0
ffff00a4:	00000000 	andeq	r0, r0, r0
ffff00a8:	00000000 	andeq	r0, r0, r0
ffff00ac:	00000000 	andeq	r0, r0, r0
ffff00b0:	00000000 	andeq	r0, r0, r0
ffff00b4:	00000000 	andeq	r0, r0, r0
ffff00b8:	00000000 	andeq	r0, r0, r0
ffff00bc:	00000000 	andeq	r0, r0, r0
ffff00c0:	00000000 	andeq	r0, r0, r0
ffff00c4:	00000000 	andeq	r0, r0, r0
ffff00c8:	00000000 	andeq	r0, r0, r0
ffff00cc:	00000000 	andeq	r0, r0, r0
ffff00d0:	00000000 	andeq	r0, r0, r0
ffff00d4:	00000000 	andeq	r0, r0, r0
ffff00d8:	00000000 	andeq	r0, r0, r0
ffff00dc:	00000000 	andeq	r0, r0, r0
ffff00e0:	00000000 	andeq	r0, r0, r0
ffff00e4:	00000000 	andeq	r0, r0, r0
ffff00e8:	00000000 	andeq	r0, r0, r0
ffff00ec:	00000000 	andeq	r0, r0, r0
ffff00f0:	00000000 	andeq	r0, r0, r0
ffff00f4:	00000000 	andeq	r0, r0, r0
ffff00f8:	00000000 	andeq	r0, r0, r0
ffff00fc:	00000000 	andeq	r0, r0, r0
ffff0100:	00000000 	andeq	r0, r0, r0
ffff0104:	00000000 	andeq	r0, r0, r0
ffff0108:	00000000 	andeq	r0, r0, r0
ffff010c:	00000000 	andeq	r0, r0, r0
ffff0110:	00000000 	andeq	r0, r0, r0
ffff0114:	00000000 	andeq	r0, r0, r0
ffff0118:	00000000 	andeq	r0, r0, r0
ffff011c:	00000000 	andeq	r0, r0, r0
ffff0120:	00000000 	andeq	r0, r0, r0
ffff0124:	00000000 	andeq	r0, r0, r0
ffff0128:	00000000 	andeq	r0, r0, r0
ffff012c:	00000000 	andeq	r0, r0, r0
ffff0130:	00000000 	andeq	r0, r0, r0
ffff0134:	00000000 	andeq	r0, r0, r0
ffff0138:	00000000 	andeq	r0, r0, r0
ffff013c:	00000000 	andeq	r0, r0, r0
ffff0140:	00000000 	andeq	r0, r0, r0
ffff0144:	00000000 	andeq	r0, r0, r0
ffff0148:	00000000 	andeq	r0, r0, r0
ffff014c:	00000000 	andeq	r0, r0, r0
ffff0150:	00000000 	andeq	r0, r0, r0
ffff0154:	00000000 	andeq	r0, r0, r0
ffff0158:	00000000 	andeq	r0, r0, r0
ffff015c:	00000000 	andeq	r0, r0, r0
ffff0160:	00000000 	andeq	r0, r0, r0
ffff0164:	00000000 	andeq	r0, r0, r0
ffff0168:	00000000 	andeq	r0, r0, r0
ffff016c:	00000000 	andeq	r0, r0, r0
ffff0170:	00000000 	andeq	r0, r0, r0
ffff0174:	00000000 	andeq	r0, r0, r0
ffff0178:	00000000 	andeq	r0, r0, r0
ffff017c:	00000000 	andeq	r0, r0, r0
ffff0180:	00000000 	andeq	r0, r0, r0
ffff0184:	00000000 	andeq	r0, r0, r0
ffff0188:	00000000 	andeq	r0, r0, r0
ffff018c:	00000000 	andeq	r0, r0, r0
ffff0190:	00000000 	andeq	r0, r0, r0
ffff0194:	00000000 	andeq	r0, r0, r0
ffff0198:	00000000 	andeq	r0, r0, r0
ffff019c:	00000000 	andeq	r0, r0, r0
ffff01a0:	00000000 	andeq	r0, r0, r0
ffff01a4:	00000000 	andeq	r0, r0, r0
ffff01a8:	00000000 	andeq	r0, r0, r0
ffff01ac:	00000000 	andeq	r0, r0, r0
ffff01b0:	00000000 	andeq	r0, r0, r0
ffff01b4:	00000000 	andeq	r0, r0, r0
ffff01b8:	00000000 	andeq	r0, r0, r0
ffff01bc:	00000000 	andeq	r0, r0, r0
ffff01c0:	00000000 	andeq	r0, r0, r0
ffff01c4:	00000000 	andeq	r0, r0, r0
ffff01c8:	00000000 	andeq	r0, r0, r0
ffff01cc:	00000000 	andeq	r0, r0, r0
ffff01d0:	00000000 	andeq	r0, r0, r0
ffff01d4:	00000000 	andeq	r0, r0, r0
ffff01d8:	00000000 	andeq	r0, r0, r0
ffff01dc:	00000000 	andeq	r0, r0, r0
ffff01e0:	00000000 	andeq	r0, r0, r0
ffff01e4:	00000000 	andeq	r0, r0, r0
ffff01e8:	00000000 	andeq	r0, r0, r0
ffff01ec:	00000000 	andeq	r0, r0, r0
ffff01f0:	00000000 	andeq	r0, r0, r0
ffff01f4:	00000000 	andeq	r0, r0, r0
ffff01f8:	00000000 	andeq	r0, r0, r0
ffff01fc:	4849534e 	stmdami	r9, {r1, r2, r3, r6, r8, r9, ip, lr}^
ffff0200:	00000000 	andeq	r0, r0, r0
ffff0204:	00000000 	andeq	r0, r0, r0
ffff0208:	00000000 	andeq	r0, r0, r0
ffff020c:	00000000 	andeq	r0, r0, r0
ffff0210:	00000000 	andeq	r0, r0, r0
ffff0214:	00000000 	andeq	r0, r0, r0
ffff0218:	00000000 	andeq	r0, r0, r0
ffff021c:	00000000 	andeq	r0, r0, r0
ffff0220:	00000000 	andeq	r0, r0, r0
ffff0224:	00000000 	andeq	r0, r0, r0
ffff0228:	00000000 	andeq	r0, r0, r0
ffff022c:	00000000 	andeq	r0, r0, r0
ffff0230:	00000000 	andeq	r0, r0, r0
ffff0234:	00000000 	andeq	r0, r0, r0
ffff0238:	00000000 	andeq	r0, r0, r0
ffff023c:	00000000 	andeq	r0, r0, r0
ffff0240:	00000000 	andeq	r0, r0, r0
ffff0244:	00000000 	andeq	r0, r0, r0
ffff0248:	00000000 	andeq	r0, r0, r0
ffff024c:	00000000 	andeq	r0, r0, r0
ffff0250:	00000000 	andeq	r0, r0, r0
ffff0254:	00000000 	andeq	r0, r0, r0
ffff0258:	00000000 	andeq	r0, r0, r0
ffff025c:	00000000 	andeq	r0, r0, r0
ffff0260:	00000000 	andeq	r0, r0, r0
ffff0264:	00000000 	andeq	r0, r0, r0
ffff0268:	00000000 	andeq	r0, r0, r0
ffff026c:	00000000 	andeq	r0, r0, r0
ffff0270:	00000000 	andeq	r0, r0, r0
ffff0274:	00000000 	andeq	r0, r0, r0
ffff0278:	00000000 	andeq	r0, r0, r0
ffff027c:	00000000 	andeq	r0, r0, r0
ffff0280:	00000000 	andeq	r0, r0, r0
ffff0284:	00000000 	andeq	r0, r0, r0
ffff0288:	00000000 	andeq	r0, r0, r0
ffff028c:	00000000 	andeq	r0, r0, r0
ffff0290:	00000000 	andeq	r0, r0, r0
ffff0294:	00000000 	andeq	r0, r0, r0
ffff0298:	00000000 	andeq	r0, r0, r0
ffff029c:	00000000 	andeq	r0, r0, r0
ffff02a0:	00000000 	andeq	r0, r0, r0
ffff02a4:	00000000 	andeq	r0, r0, r0
ffff02a8:	00000000 	andeq	r0, r0, r0
ffff02ac:	00000000 	andeq	r0, r0, r0
ffff02b0:	00000000 	andeq	r0, r0, r0
ffff02b4:	00000000 	andeq	r0, r0, r0
ffff02b8:	00000000 	andeq	r0, r0, r0
ffff02bc:	00000000 	andeq	r0, r0, r0
ffff02c0:	00000000 	andeq	r0, r0, r0
ffff02c4:	00000000 	andeq	r0, r0, r0
ffff02c8:	00000000 	andeq	r0, r0, r0
ffff02cc:	00000000 	andeq	r0, r0, r0
ffff02d0:	00000000 	andeq	r0, r0, r0
ffff02d4:	00000000 	andeq	r0, r0, r0
ffff02d8:	00000000 	andeq	r0, r0, r0
ffff02dc:	00000000 	andeq	r0, r0, r0
ffff02e0:	00000000 	andeq	r0, r0, r0
ffff02e4:	00000000 	andeq	r0, r0, r0
ffff02e8:	00000000 	andeq	r0, r0, r0
ffff02ec:	00000000 	andeq	r0, r0, r0
ffff02f0:	00000000 	andeq	r0, r0, r0
ffff02f4:	00000000 	andeq	r0, r0, r0
ffff02f8:	00000000 	andeq	r0, r0, r0
ffff02fc:	00000000 	andeq	r0, r0, r0
ffff0300:	00000000 	andeq	r0, r0, r0
ffff0304:	00000000 	andeq	r0, r0, r0
ffff0308:	00000000 	andeq	r0, r0, r0
ffff030c:	00000000 	andeq	r0, r0, r0
ffff0310:	00000000 	andeq	r0, r0, r0
ffff0314:	00000000 	andeq	r0, r0, r0
ffff0318:	00000000 	andeq	r0, r0, r0
ffff031c:	00000000 	andeq	r0, r0, r0
ffff0320:	00000000 	andeq	r0, r0, r0
ffff0324:	00000000 	andeq	r0, r0, r0
ffff0328:	00000000 	andeq	r0, r0, r0
ffff032c:	00000000 	andeq	r0, r0, r0
ffff0330:	00000000 	andeq	r0, r0, r0
ffff0334:	00000000 	andeq	r0, r0, r0
ffff0338:	00000000 	andeq	r0, r0, r0
ffff033c:	00000000 	andeq	r0, r0, r0
ffff0340:	00000000 	andeq	r0, r0, r0
ffff0344:	00000000 	andeq	r0, r0, r0
ffff0348:	00000000 	andeq	r0, r0, r0
ffff034c:	00000000 	andeq	r0, r0, r0
ffff0350:	00000000 	andeq	r0, r0, r0
ffff0354:	00000000 	andeq	r0, r0, r0
ffff0358:	00000000 	andeq	r0, r0, r0
ffff035c:	00000000 	andeq	r0, r0, r0
ffff0360:	00000000 	andeq	r0, r0, r0
ffff0364:	00000000 	andeq	r0, r0, r0
ffff0368:	00000000 	andeq	r0, r0, r0
ffff036c:	00000000 	andeq	r0, r0, r0
ffff0370:	00000000 	andeq	r0, r0, r0
ffff0374:	00000000 	andeq	r0, r0, r0
ffff0378:	00000000 	andeq	r0, r0, r0
ffff037c:	00000000 	andeq	r0, r0, r0
ffff0380:	00000000 	andeq	r0, r0, r0
ffff0384:	00000000 	andeq	r0, r0, r0
ffff0388:	00000000 	andeq	r0, r0, r0
ffff038c:	00000000 	andeq	r0, r0, r0
ffff0390:	00000000 	andeq	r0, r0, r0
ffff0394:	00000000 	andeq	r0, r0, r0
ffff0398:	00000000 	andeq	r0, r0, r0
ffff039c:	00000000 	andeq	r0, r0, r0
ffff03a0:	00000000 	andeq	r0, r0, r0
ffff03a4:	00000000 	andeq	r0, r0, r0
ffff03a8:	00000000 	andeq	r0, r0, r0
ffff03ac:	00000000 	andeq	r0, r0, r0
ffff03b0:	00000000 	andeq	r0, r0, r0
ffff03b4:	00000000 	andeq	r0, r0, r0
ffff03b8:	00000000 	andeq	r0, r0, r0
ffff03bc:	00000000 	andeq	r0, r0, r0
ffff03c0:	00000000 	andeq	r0, r0, r0
ffff03c4:	00000000 	andeq	r0, r0, r0
ffff03c8:	00000000 	andeq	r0, r0, r0
ffff03cc:	00000000 	andeq	r0, r0, r0
ffff03d0:	00000000 	andeq	r0, r0, r0
ffff03d4:	00000000 	andeq	r0, r0, r0
ffff03d8:	00000000 	andeq	r0, r0, r0
ffff03dc:	00000000 	andeq	r0, r0, r0
ffff03e0:	00000000 	andeq	r0, r0, r0
ffff03e4:	00000000 	andeq	r0, r0, r0
ffff03e8:	00000000 	andeq	r0, r0, r0
ffff03ec:	00000000 	andeq	r0, r0, r0
ffff03f0:	00000000 	andeq	r0, r0, r0
ffff03f4:	00000000 	andeq	r0, r0, r0
ffff03f8:	00000000 	andeq	r0, r0, r0
ffff03fc:	00000000 	andeq	r0, r0, r0
ffff0400:	00000000 	andeq	r0, r0, r0
ffff0404:	00000000 	andeq	r0, r0, r0
ffff0408:	00000000 	andeq	r0, r0, r0
ffff040c:	00000000 	andeq	r0, r0, r0
ffff0410:	00000000 	andeq	r0, r0, r0
ffff0414:	00000000 	andeq	r0, r0, r0
ffff0418:	00000000 	andeq	r0, r0, r0
ffff041c:	00000000 	andeq	r0, r0, r0
ffff0420:	ea000076 	b	0xffff0600
ffff0424:	68181000 	ldmdavs	r8, {ip}
ffff0428:	ee10cfb0 	mrc	15, 0, ip, cr0, cr0, {5}
ffff042c:	e20cbcff 	and	fp, ip, #65280	; 0xff00
ffff0430:	e20cc0ff 	and	ip, ip, #255	; 0xff
ffff0434:	e18cc32b 	orr	ip, ip, fp, lsr #6
ffff0438:	e21cc00f 	ands	ip, ip, #15
ffff043c:	e321f0d3 	msr	CPSR_c, #211	; 0xd3
ffff0440:	1a000020 	bne	0xffff04c8
ffff0444:	e59f03f8 	ldr	r0, [pc, #1016]	; 0xffff0844
ffff0448:	e3a01001 	mov	r1, #1
ffff044c:	e5801000 	str	r1, [r0]
ffff0450:	e3a01fff 	mov	r1, #1020	; 0x3fc
ffff0454:	e580109c 	str	r1, [r0, #156]	; 0x9c
ffff0458:	e3a00103 	mov	r0, #-1073741824	; 0xc0000000
ffff045c:	e3800801 	orr	r0, r0, #65536	; 0x10000
ffff0460:	e3800e23 	orr	r0, r0, #560	; 0x230
ffff0464:	e3e01000 	mvn	r1, #0
ffff0468:	e5801000 	str	r1, [r0]
ffff046c:	e3a02000 	mov	r2, #0
ffff0470:	e59f13d0 	ldr	r1, [pc, #976]	; 0xffff0848
ffff0474:	e5812000 	str	r2, [r1]
ffff0478:	e59f13cc 	ldr	r1, [pc, #972]	; 0xffff084c
ffff047c:	e5812000 	str	r2, [r1]
ffff0480:	e59f13c8 	ldr	r1, [pc, #968]	; 0xffff0850
ffff0484:	e5812000 	str	r2, [r1]
ffff0488:	e59f13c4 	ldr	r1, [pc, #964]	; 0xffff0854
ffff048c:	e4812004 	str	r2, [r1], #4
ffff0490:	e4812004 	str	r2, [r1], #4
ffff0494:	e4812004 	str	r2, [r1], #4
ffff0498:	e4812004 	str	r2, [r1], #4
ffff049c:	e4812004 	str	r2, [r1], #4
ffff04a0:	e4812004 	str	r2, [r1], #4
ffff04a4:	e4812004 	str	r2, [r1], #4
ffff04a8:	e4812004 	str	r2, [r1], #4
ffff04ac:	e59f13a4 	ldr	r1, [pc, #932]	; 0xffff0858
ffff04b0:	e59f23a4 	ldr	r2, [pc, #932]	; 0xffff085c
ffff04b4:	e3a03000 	mov	r3, #0
ffff04b8:	e1510002 	cmp	r1, r2
ffff04bc:	35813000 	strcc	r3, [r1]
ffff04c0:	32811004 	addcc	r1, r1, #4
ffff04c4:	3afffffb 	bcc	0xffff04b8
ffff04c8:	e3a004ff 	mov	r0, #-16777216	; 0xff000000
ffff04cc:	e38008ff 	orr	r0, r0, #16711680	; 0xff0000
ffff04d0:	e2800801 	add	r0, r0, #65536	; 0x10000
ffff04d4:	e3a01020 	mov	r1, #32
ffff04d8:	e24c2001 	sub	r2, ip, #1
ffff04dc:	e2022007 	and	r2, r2, #7
ffff04e0:	e0010291 	mul	r1, r1, r2
ffff04e4:	e0400001 	sub	r0, r0, r1
ffff04e8:	e1a0d000 	mov	sp, r0
ffff04ec:	e1b0000c 	movs	r0, ip
ffff04f0:	0b000fce 	bleq	0xffff4430
ffff04f4:	1b00023b 	blne	0xffff0de8
ffff04f8:	eafffffe 	b	0xffff04f8
ffff04fc:	e320f000 	nop	{0}
ffff0500:	e3a03c01 	mov	r3, #256	; 0x100
ffff0504:	e2533001 	subs	r3, r3, #1
ffff0508:	05810000 	streq	r0, [r1]
ffff050c:	01b03002 	movseq	r3, r2
ffff0510:	13530c01 	cmpne	r3, #256	; 0x100
ffff0514:	1afffffa 	bne	0xffff0504
ffff0518:	e12fff1e 	bx	lr
ffff051c:	e320f000 	nop	{0}
ffff0520:	e3a00001 	mov	r0, #1
ffff0524:	e59f131c 	ldr	r1, [pc, #796]	; 0xffff0848
ffff0528:	e5912000 	ldr	r2, [r1]
ffff052c:	e1822310 	orr	r2, r2, r0, lsl r3
ffff0530:	e5812000 	str	r2, [r1]
ffff0534:	e59f0310 	ldr	r0, [pc, #784]	; 0xffff084c
ffff0538:	e320f003 	wfi
ffff053c:	e5901000 	ldr	r1, [r0]
ffff0540:	e3510000 	cmp	r1, #0
ffff0544:	0afffffb 	beq	0xffff0538
ffff0548:	ea00006c 	b	0xffff0700
ffff054c:	e320f000 	nop	{0}
ffff0550:	e320f000 	nop	{0}
ffff0554:	e320f000 	nop	{0}
ffff0558:	e320f000 	nop	{0}
ffff055c:	e320f000 	nop	{0}
ffff0560:	e320f000 	nop	{0}
ffff0564:	e320f000 	nop	{0}
ffff0568:	e320f000 	nop	{0}
ffff056c:	e320f000 	nop	{0}
ffff0570:	e320f000 	nop	{0}
ffff0574:	e320f000 	nop	{0}
ffff0578:	e320f000 	nop	{0}
ffff057c:	e320f000 	nop	{0}
ffff0580:	00000000 	andeq	r0, r0, r0
ffff0584:	00000000 	andeq	r0, r0, r0
ffff0588:	00000000 	andeq	r0, r0, r0
ffff058c:	00000000 	andeq	r0, r0, r0
ffff0590:	00000000 	andeq	r0, r0, r0
ffff0594:	00000000 	andeq	r0, r0, r0
ffff0598:	00000000 	andeq	r0, r0, r0
ffff059c:	00000000 	andeq	r0, r0, r0
ffff05a0:	00000000 	andeq	r0, r0, r0
ffff05a4:	00000000 	andeq	r0, r0, r0
ffff05a8:	00000000 	andeq	r0, r0, r0
ffff05ac:	00000000 	andeq	r0, r0, r0
ffff05b0:	00000000 	andeq	r0, r0, r0
ffff05b4:	00000000 	andeq	r0, r0, r0
ffff05b8:	00000000 	andeq	r0, r0, r0
ffff05bc:	00000000 	andeq	r0, r0, r0
ffff05c0:	00000000 	andeq	r0, r0, r0
ffff05c4:	00000000 	andeq	r0, r0, r0
ffff05c8:	00000000 	andeq	r0, r0, r0
ffff05cc:	00000000 	andeq	r0, r0, r0
ffff05d0:	00000000 	andeq	r0, r0, r0
ffff05d4:	00000000 	andeq	r0, r0, r0
ffff05d8:	00000000 	andeq	r0, r0, r0
ffff05dc:	00000000 	andeq	r0, r0, r0
ffff05e0:	00000000 	andeq	r0, r0, r0
ffff05e4:	00000000 	andeq	r0, r0, r0
ffff05e8:	00000000 	andeq	r0, r0, r0
ffff05ec:	00000000 	andeq	r0, r0, r0
ffff05f0:	00000000 	andeq	r0, r0, r0
ffff05f4:	00000000 	andeq	r0, r0, r0
ffff05f8:	00000000 	andeq	r0, r0, r0
ffff05fc:	00000000 	andeq	r0, r0, r0
ffff0600:	f10c00c0 	cpsid	if
ffff0604:	e92d401f 	push	{r0, r1, r2, r3, r4, lr}
ffff0608:	eb00007a 	bl	0xffff07f8
ffff060c:	ee111f10 	mrc	15, 0, r1, cr1, cr0, {0}
ffff0610:	e3c11004 	bic	r1, r1, #4
ffff0614:	ee011f10 	mcr	15, 0, r1, cr1, cr0, {0}
ffff0618:	e1a0400f 	mov	r4, pc
ffff061c:	e3c440ff 	bic	r4, r4, #255	; 0xff
ffff0620:	e3c44cff 	bic	r4, r4, #65280	; 0xff00
ffff0624:	e3c11001 	bic	r1, r1, #1
ffff0628:	e59f0230 	ldr	r0, [pc, #560]	; 0xffff0860
ffff062c:	e3500000 	cmp	r0, #0
ffff0630:	ee011f10 	mcr	15, 0, r1, cr1, cr0, {0}
ffff0634:	e1a0f000 	mov	pc, r0
ffff0638:	e320f000 	nop	{0}
ffff063c:	e320f000 	nop	{0}
ffff0640:	e320f000 	nop	{0}
ffff0644:	e59f0218 	ldr	r0, [pc, #536]	; 0xffff0864
ffff0648:	e5901000 	ldr	r1, [r0]
ffff064c:	e3c120ff 	bic	r2, r1, #255	; 0xff
ffff0650:	e3821001 	orr	r1, r2, #1
ffff0654:	e5801000 	str	r1, [r0]
ffff0658:	ee103fb0 	mrc	15, 0, r3, cr0, cr0, {5}
ffff065c:	e2032cff 	and	r2, r3, #65280	; 0xff00
ffff0660:	e20330ff 	and	r3, r3, #255	; 0xff
ffff0664:	e1833322 	orr	r3, r3, r2, lsr #6
ffff0668:	e213300f 	ands	r3, r3, #15
ffff066c:	e59f01e0 	ldr	r0, [pc, #480]	; 0xffff0854
ffff0670:	e1a02103 	lsl	r2, r3, #2
ffff0674:	e7804002 	str	r4, [r0, r2]
ffff0678:	1affffa8 	bne	0xffff0520
ffff067c:	e59f01cc 	ldr	r0, [pc, #460]	; 0xffff0850
ffff0680:	e580d000 	str	sp, [r0]
ffff0684:	e3a0d4ff 	mov	sp, #-16777216	; 0xff000000
ffff0688:	e38dd8ff 	orr	sp, sp, #16711680	; 0xff0000
ffff068c:	e28dd801 	add	sp, sp, #65536	; 0x10000
ffff0690:	e52de004 	push	{lr}		; (str lr, [sp, #-4]!)
ffff0694:	eb000171 	bl	0xffff0c60
ffff0698:	e59f01c8 	ldr	r0, [pc, #456]	; 0xffff0868
ffff069c:	e3a018fe 	mov	r1, #16646144	; 0xfe0000
ffff06a0:	e5801000 	str	r1, [r0]
ffff06a4:	e59f01a0 	ldr	r0, [pc, #416]	; 0xffff084c
ffff06a8:	e3a01001 	mov	r1, #1
ffff06ac:	e5801000 	str	r1, [r0]
ffff06b0:	e49de004 	pop	{lr}		; (ldr lr, [sp], #4)
ffff06b4:	e59f0194 	ldr	r0, [pc, #404]	; 0xffff0850
ffff06b8:	e590d000 	ldr	sp, [r0]
ffff06bc:	e320f000 	nop	{0}
ffff06c0:	00000000 	andeq	r0, r0, r0
ffff06c4:	00000000 	andeq	r0, r0, r0
ffff06c8:	00000000 	andeq	r0, r0, r0
ffff06cc:	00000000 	andeq	r0, r0, r0
ffff06d0:	00000000 	andeq	r0, r0, r0
ffff06d4:	00000000 	andeq	r0, r0, r0
ffff06d8:	00000000 	andeq	r0, r0, r0
ffff06dc:	00000000 	andeq	r0, r0, r0
ffff06e0:	00000000 	andeq	r0, r0, r0
ffff06e4:	00000000 	andeq	r0, r0, r0
ffff06e8:	00000000 	andeq	r0, r0, r0
ffff06ec:	00000000 	andeq	r0, r0, r0
ffff06f0:	00000000 	andeq	r0, r0, r0
ffff06f4:	00000000 	andeq	r0, r0, r0
ffff06f8:	00000000 	andeq	r0, r0, r0
ffff06fc:	00000000 	andeq	r0, r0, r0
ffff0700:	e59f014c 	ldr	r0, [pc, #332]	; 0xffff0854
ffff0704:	ee103fb0 	mrc	15, 0, r3, cr0, cr0, {5}
ffff0708:	e2032cff 	and	r2, r3, #65280	; 0xff00
ffff070c:	e20330ff 	and	r3, r3, #255	; 0xff
ffff0710:	e1833322 	orr	r3, r3, r2, lsr #6
ffff0714:	e203300f 	and	r3, r3, #15
ffff0718:	e1a02103 	lsl	r2, r3, #2
ffff071c:	e7904002 	ldr	r4, [r0, r2]
ffff0720:	ee111f10 	mrc	15, 0, r1, cr1, cr0, {0}
ffff0724:	e3811001 	orr	r1, r1, #1
ffff0728:	e3811a01 	orr	r1, r1, #4096	; 0x1000
ffff072c:	e3811004 	orr	r1, r1, #4
ffff0730:	e59f0134 	ldr	r0, [pc, #308]	; 0xffff086c
ffff0734:	e3c004ff 	bic	r0, r0, #-16777216	; 0xff000000
ffff0738:	e3c008ff 	bic	r0, r0, #16711680	; 0xff0000
ffff073c:	e1800004 	orr	r0, r0, r4
ffff0740:	e3500000 	cmp	r0, #0
ffff0744:	ee011f10 	mcr	15, 0, r1, cr1, cr0, {0}
ffff0748:	e1a0f000 	mov	pc, r0
ffff074c:	e320f000 	nop	{0}
ffff0750:	e320f000 	nop	{0}
ffff0754:	e320f000 	nop	{0}
ffff0758:	e8bd401f 	pop	{r0, r1, r2, r3, r4, lr}
ffff075c:	e1a0f00e 	mov	pc, lr
ffff0760:	eafffffe 	b	0xffff0760
ffff0764:	f57ff05f 	dmb	sy
ffff0768:	ee300f30 	mrc	15, 1, r0, cr0, cr0, {1}
ffff076c:	e2103407 	ands	r3, r0, #117440512	; 0x7000000
ffff0770:	e1a03ba3 	lsr	r3, r3, #23
ffff0774:	0a00001a 	beq	0xffff07e4
ffff0778:	e3a0a000 	mov	sl, #0
ffff077c:	e08a20aa 	add	r2, sl, sl, lsr #1
ffff0780:	e1a01230 	lsr	r1, r0, r2
ffff0784:	e2011007 	and	r1, r1, #7
ffff0788:	e3510002 	cmp	r1, #2
ffff078c:	ba000011 	blt	0xffff07d8
ffff0790:	ee40af10 	mcr	15, 2, sl, cr0, cr0, {0}
ffff0794:	f57ff06f 	isb	sy
ffff0798:	ee301f10 	mrc	15, 1, r1, cr0, cr0, {0}
ffff079c:	e2012007 	and	r2, r1, #7
ffff07a0:	e2822004 	add	r2, r2, #4
ffff07a4:	e59f40c4 	ldr	r4, [pc, #196]	; 0xffff0870
ffff07a8:	e01441a1 	ands	r4, r4, r1, lsr #3
ffff07ac:	e16f5f14 	clz	r5, r4
ffff07b0:	e59f70bc 	ldr	r7, [pc, #188]	; 0xffff0874
ffff07b4:	e01776a1 	ands	r7, r7, r1, lsr #13
ffff07b8:	e1a09004 	mov	r9, r4
ffff07bc:	e18ab519 	orr	fp, sl, r9, lsl r5
ffff07c0:	e18bb217 	orr	fp, fp, r7, lsl r2
ffff07c4:	ee07bf5e 	mcr	15, 0, fp, cr7, cr14, {2}
ffff07c8:	e2599001 	subs	r9, r9, #1
ffff07cc:	aafffffa 	bge	0xffff07bc
ffff07d0:	e2577001 	subs	r7, r7, #1
ffff07d4:	aafffff7 	bge	0xffff07b8
ffff07d8:	e28aa002 	add	sl, sl, #2
ffff07dc:	e153000a 	cmp	r3, sl
ffff07e0:	caffffe5 	bgt	0xffff077c
ffff07e4:	e3a0a000 	mov	sl, #0
ffff07e8:	ee40af10 	mcr	15, 2, sl, cr0, cr0, {0}
ffff07ec:	f57ff04f 	dsb	sy
ffff07f0:	f57ff06f 	isb	sy
ffff07f4:	e1a0f00e 	mov	pc, lr
ffff07f8:	e92d4eb0 	push	{r4, r5, r7, r9, sl, fp, lr}
ffff07fc:	ebffffd8 	bl	0xffff0764
ffff0800:	e3a00000 	mov	r0, #0
ffff0804:	ee070f11 	mcr	15, 0, r0, cr7, cr1, {0}
ffff0808:	ee070f15 	mcr	15, 0, r0, cr7, cr5, {0}
ffff080c:	e8bd4eb0 	pop	{r4, r5, r7, r9, sl, fp, lr}
ffff0810:	e1a0f00e 	mov	pc, lr
ffff0814:	12345678 	eorsne	r5, r4, #120, 12	; 0x7800000
ffff0818:	00000000 	andeq	r0, r0, r0
ffff081c:	00000000 	andeq	r0, r0, r0
ffff0820:	00000000 	andeq	r0, r0, r0
ffff0824:	00000000 	andeq	r0, r0, r0
ffff0828:	00000000 	andeq	r0, r0, r0
ffff082c:	00000000 	andeq	r0, r0, r0
ffff0830:	00000000 	andeq	r0, r0, r0
ffff0834:	00000000 	andeq	r0, r0, r0
ffff0838:	00000000 	andeq	r0, r0, r0
ffff083c:	00000000 	andeq	r0, r0, r0
ffff0840:	00000000 	andeq	r0, r0, r0
ffff0844:	c0010800 	andgt	r0, r1, r0, lsl #16
ffff0848:	ffff0818 			; <UNDEFINED> instruction: 0xffff0818
ffff084c:	ffff081c 			; <UNDEFINED> instruction: 0xffff081c
ffff0850:	ffff0820 			; <UNDEFINED> instruction: 0xffff0820
ffff0854:	ffff0824 			; <UNDEFINED> instruction: 0xffff0824
ffff0858:	ffff5430 			; <UNDEFINED> instruction: 0xffff5430
ffff085c:	ffff548c 			; <UNDEFINED> instruction: 0xffff548c
ffff0860:	ffff0644 			; <UNDEFINED> instruction: 0xffff0644
ffff0864:	c0009824 	andgt	r9, r0, r4, lsr #16
ffff0868:	c0009f00 	andgt	r9, r0, r0, lsl #30
ffff086c:	ffff0758 			; <UNDEFINED> instruction: 0xffff0758
ffff0870:	000003ff 	strdeq	r0, [r0], -pc	; <UNPREDICTABLE>
ffff0874:	00007fff 	strdeq	r7, [r0], -pc	; <UNPREDICTABLE>
ffff0878:	e320f000 	nop	{0}
ffff087c:	e320f000 	nop	{0}
ffff0880:	00000000 	andeq	r0, r0, r0
ffff0884:	00000000 	andeq	r0, r0, r0
ffff0888:	00000000 	andeq	r0, r0, r0
ffff088c:	00000000 	andeq	r0, r0, r0
ffff0890:	00000000 	andeq	r0, r0, r0
ffff0894:	00000000 	andeq	r0, r0, r0
ffff0898:	00000000 	andeq	r0, r0, r0
ffff089c:	00000000 	andeq	r0, r0, r0
ffff08a0:	00000000 	andeq	r0, r0, r0
ffff08a4:	00000000 	andeq	r0, r0, r0
ffff08a8:	00000000 	andeq	r0, r0, r0
ffff08ac:	00000000 	andeq	r0, r0, r0
ffff08b0:	00000000 	andeq	r0, r0, r0
ffff08b4:	00000000 	andeq	r0, r0, r0
ffff08b8:	00000000 	andeq	r0, r0, r0
ffff08bc:	00000000 	andeq	r0, r0, r0
ffff08c0:	00000000 	andeq	r0, r0, r0
ffff08c4:	00000000 	andeq	r0, r0, r0
ffff08c8:	00000000 	andeq	r0, r0, r0
ffff08cc:	00000000 	andeq	r0, r0, r0
ffff08d0:	00000000 	andeq	r0, r0, r0
ffff08d4:	00000000 	andeq	r0, r0, r0
ffff08d8:	00000000 	andeq	r0, r0, r0
ffff08dc:	00000000 	andeq	r0, r0, r0
ffff08e0:	00000000 	andeq	r0, r0, r0
ffff08e4:	00000000 	andeq	r0, r0, r0
ffff08e8:	00000000 	andeq	r0, r0, r0
ffff08ec:	00000000 	andeq	r0, r0, r0
ffff08f0:	00000000 	andeq	r0, r0, r0
ffff08f4:	00000000 	andeq	r0, r0, r0
ffff08f8:	00000000 	andeq	r0, r0, r0
ffff08fc:	00000000 	andeq	r0, r0, r0
ffff0900:	e10f0000 	mrs	r0, CPSR
ffff0904:	e200001f 	and	r0, r0, #31
ffff0908:	e12fff1e 	bx	lr
ffff090c:	ee100fb0 	mrc	15, 0, r0, cr0, cr0, {5}
ffff0910:	e3100b11 	tst	r0, #17408	; 0x4400
ffff0914:	13800004 	orrne	r0, r0, #4
ffff0918:	e210000f 	ands	r0, r0, #15
ffff091c:	e12fff1e 	bx	lr
ffff0920:	ee110f11 	mrc	15, 0, r0, cr1, cr1, {0}
ffff0924:	e12fff1e 	bx	lr
ffff0928:	ee010f11 	mcr	15, 0, r0, cr1, cr1, {0}
ffff092c:	e12fff1e 	bx	lr
ffff0930:	ee110f11 	mrc	15, 0, r0, cr1, cr1, {0}
ffff0934:	e3800001 	orr	r0, r0, #1
ffff0938:	ee010f11 	mcr	15, 0, r0, cr1, cr1, {0}
ffff093c:	e5100004 	ldr	r0, [r0, #-4]
ffff0940:	e200000f 	and	r0, r0, #15
ffff0944:	e12fff1e 	bx	lr
ffff0948:	ee012f11 	mcr	15, 0, r2, cr1, cr1, {0}
ffff094c:	e169f001 	msr	SPSR_fc, r1
ffff0950:	e1a0e000 	mov	lr, r0
ffff0954:	f57ff04f 	dsb	sy
ffff0958:	e1b0f00e 	movs	pc, lr
ffff095c:	e3a0b006 	mov	fp, #6
ffff0960:	e3a0c000 	mov	ip, #0
ffff0964:	e12fff10 	bx	r0
ffff0968:	e92d4010 	push	{r4, lr}
ffff096c:	ebfffff2 	bl	0xffff093c
ffff0970:	e350000c 	cmp	r0, #12
ffff0974:	e1a04000 	mov	r4, r0
ffff0978:	1a00001a 	bne	0xffff09e8
ffff097c:	ebffffe2 	bl	0xffff090c
ffff0980:	e3500000 	cmp	r0, #0
ffff0984:	0a000002 	beq	0xffff0994
ffff0988:	f57ff05f 	dmb	sy
ffff098c:	e320f003 	wfi
ffff0990:	e8bd8010 	pop	{r4, pc}
ffff0994:	e59f0058 	ldr	r0, [pc, #88]	; 0xffff09f4
ffff0998:	e1a01004 	mov	r1, r4
ffff099c:	eb00042c 	bl	0xffff1a54
ffff09a0:	eb00033a 	bl	0xffff1690
ffff09a4:	e3500000 	cmp	r0, #0
ffff09a8:	0afffffc 	beq	0xffff09a0
ffff09ac:	eb00033f 	bl	0xffff16b0
ffff09b0:	e3500000 	cmp	r0, #0
ffff09b4:	1afffffc 	bne	0xffff09ac
ffff09b8:	eb0000a8 	bl	0xffff0c60
ffff09bc:	ebffffcf 	bl	0xffff0900
ffff09c0:	e1a01000 	mov	r1, r0
ffff09c4:	e59f002c 	ldr	r0, [pc, #44]	; 0xffff09f8
ffff09c8:	eb000421 	bl	0xffff1a54
ffff09cc:	eb00032f 	bl	0xffff1690
ffff09d0:	e3500000 	cmp	r0, #0
ffff09d4:	0afffffc 	beq	0xffff09cc
ffff09d8:	eb000334 	bl	0xffff16b0
ffff09dc:	e3500000 	cmp	r0, #0
ffff09e0:	1afffffc 	bne	0xffff09d8
ffff09e4:	e8bd8010 	pop	{r4, pc}
ffff09e8:	e59f000c 	ldr	r0, [pc, #12]	; 0xffff09fc
ffff09ec:	e8bd4010 	pop	{r4, lr}
ffff09f0:	ea000417 	b	0xffff1a54
ffff09f4:	ffff45bc 			; <UNDEFINED> instruction: 0xffff45bc
ffff09f8:	ffff45f1 			; <UNDEFINED> instruction: 0xffff45f1
ffff09fc:	ffff4613 			; <UNDEFINED> instruction: 0xffff4613
ffff0a00:	e92d41f0 	push	{r4, r5, r6, r7, r8, lr}
ffff0a04:	e1a06003 	mov	r6, r3
ffff0a08:	e59f3050 	ldr	r3, [pc, #80]	; 0xffff0a60
ffff0a0c:	e3e02000 	mvn	r2, #0
ffff0a10:	e1a07001 	mov	r7, r1
ffff0a14:	e59d5018 	ldr	r5, [sp, #24]
ffff0a18:	e1a00006 	mov	r0, r6
ffff0a1c:	e5934000 	ldr	r4, [r3]
ffff0a20:	e3a03001 	mov	r3, #1
ffff0a24:	e1a01005 	mov	r1, r5
ffff0a28:	e5843000 	str	r3, [r4]
ffff0a2c:	e5842068 	str	r2, [r4, #104]	; 0x68
ffff0a30:	e58420ac 	str	r2, [r4, #172]	; 0xac
ffff0a34:	e58420b8 	str	r2, [r4, #184]	; 0xb8
ffff0a38:	e58420c4 	str	r2, [r4, #196]	; 0xc4
ffff0a3c:	e58420d0 	str	r2, [r4, #208]	; 0xd0
ffff0a40:	eb000432 	bl	0xffff1b10
ffff0a44:	e59f3018 	ldr	r3, [pc, #24]	; 0xffff0a64
ffff0a48:	e584306c 	str	r3, [r4, #108]	; 0x6c
ffff0a4c:	e58470b0 	str	r7, [r4, #176]	; 0xb0
ffff0a50:	e58400bc 	str	r0, [r4, #188]	; 0xbc
ffff0a54:	e58460c8 	str	r6, [r4, #200]	; 0xc8
ffff0a58:	e58450d4 	str	r5, [r4, #212]	; 0xd4
ffff0a5c:	e8bd81f0 	pop	{r4, r5, r6, r7, r8, pc}
ffff0a60:	ffff51e4 			; <UNDEFINED> instruction: 0xffff51e4
ffff0a64:	50575200 	subspl	r5, r7, r0, lsl #4
ffff0a68:	e59f3048 	ldr	r3, [pc, #72]	; 0xffff0ab8
ffff0a6c:	e59f1048 	ldr	r1, [pc, #72]	; 0xffff0abc
ffff0a70:	e5933000 	ldr	r3, [r3]
ffff0a74:	e5932070 	ldr	r2, [r3, #112]	; 0x70
ffff0a78:	e3c220ff 	bic	r2, r2, #255	; 0xff
ffff0a7c:	e1520001 	cmp	r2, r1
ffff0a80:	13a00000 	movne	r0, #0
ffff0a84:	1a000002 	bne	0xffff0a94
ffff0a88:	e59300a8 	ldr	r0, [r3, #168]	; 0xa8
ffff0a8c:	e2900000 	adds	r0, r0, #0
ffff0a90:	13a00001 	movne	r0, #1
ffff0a94:	e59320d8 	ldr	r2, [r3, #216]	; 0xd8
ffff0a98:	e59f1020 	ldr	r1, [pc, #32]	; 0xffff0ac0
ffff0a9c:	e3c220ff 	bic	r2, r2, #255	; 0xff
ffff0aa0:	e1520001 	cmp	r2, r1
ffff0aa4:	112fff1e 	bxne	lr
ffff0aa8:	e59330a8 	ldr	r3, [r3, #168]	; 0xa8
ffff0aac:	e3530000 	cmp	r3, #0
ffff0ab0:	13a00001 	movne	r0, #1
ffff0ab4:	e12fff1e 	bx	lr
ffff0ab8:	ffff51e4 			; <UNDEFINED> instruction: 0xffff51e4
ffff0abc:	50575200 	subspl	r5, r7, r0, lsl #4
ffff0ac0:	41544600 	cmpmi	r4, r0, lsl #12
ffff0ac4:	e59f3164 	ldr	r3, [pc, #356]	; 0xffff0c30
ffff0ac8:	e92d41f3 	push	{r0, r1, r4, r5, r6, r7, r8, lr}
ffff0acc:	e5934000 	ldr	r4, [r3]
ffff0ad0:	e3a03001 	mov	r3, #1
ffff0ad4:	e5843000 	str	r3, [r4]
ffff0ad8:	e59460b4 	ldr	r6, [r4, #180]	; 0xb4
ffff0adc:	e5941070 	ldr	r1, [r4, #112]	; 0x70
ffff0ae0:	e59f314c 	ldr	r3, [pc, #332]	; 0xffff0c34
ffff0ae4:	e59470cc 	ldr	r7, [r4, #204]	; 0xcc
ffff0ae8:	e59450c0 	ldr	r5, [r4, #192]	; 0xc0
ffff0aec:	e3c120ff 	bic	r2, r1, #255	; 0xff
ffff0af0:	e59480d8 	ldr	r8, [r4, #216]	; 0xd8
ffff0af4:	e1520003 	cmp	r2, r3
ffff0af8:	e594c0d8 	ldr	ip, [r4, #216]	; 0xd8
ffff0afc:	1a000021 	bne	0xffff0b88
ffff0b00:	e3e0c000 	mvn	ip, #0
ffff0b04:	e1a01008 	mov	r1, r8
ffff0b08:	e1a00007 	mov	r0, r7
ffff0b0c:	e584c068 	str	ip, [r4, #104]	; 0x68
ffff0b10:	e584c0ac 	str	ip, [r4, #172]	; 0xac
ffff0b14:	e584c0b8 	str	ip, [r4, #184]	; 0xb8
ffff0b18:	e584c0c4 	str	ip, [r4, #196]	; 0xc4
ffff0b1c:	e584c0d0 	str	ip, [r4, #208]	; 0xd0
ffff0b20:	eb0003fa 	bl	0xffff1b10
ffff0b24:	e1a04000 	mov	r4, r0
ffff0b28:	e58d0004 	str	r0, [sp, #4]
ffff0b2c:	e1a01005 	mov	r1, r5
ffff0b30:	e58d8000 	str	r8, [sp]
ffff0b34:	e59f00fc 	ldr	r0, [pc, #252]	; 0xffff0c38
ffff0b38:	e1a02006 	mov	r2, r6
ffff0b3c:	e1a03007 	mov	r3, r7
ffff0b40:	e0645005 	rsb	r5, r4, r5
ffff0b44:	e16f5f15 	clz	r5, r5
ffff0b48:	eb0003c1 	bl	0xffff1a54
ffff0b4c:	e1a052a5 	lsr	r5, r5, #5
ffff0b50:	e3560000 	cmp	r6, #0
ffff0b54:	03a05000 	moveq	r5, #0
ffff0b58:	e3550000 	cmp	r5, #0
ffff0b5c:	0a00002f 	beq	0xffff0c20
ffff0b60:	e59f40d4 	ldr	r4, [pc, #212]	; 0xffff0c3c
ffff0b64:	e59f00d4 	ldr	r0, [pc, #212]	; 0xffff0c40
ffff0b68:	eb0003b9 	bl	0xffff1a54
ffff0b6c:	eb0002cf 	bl	0xffff16b0
ffff0b70:	e3500000 	cmp	r0, #0
ffff0b74:	0a000001 	beq	0xffff0b80
ffff0b78:	e2544001 	subs	r4, r4, #1
ffff0b7c:	1afffffa 	bne	0xffff0b6c
ffff0b80:	e12fff36 	blx	r6
ffff0b84:	ea000025 	b	0xffff0c20
ffff0b88:	e59f20b4 	ldr	r2, [pc, #180]	; 0xffff0c44
ffff0b8c:	e3cc30ff 	bic	r3, ip, #255	; 0xff
ffff0b90:	e1530002 	cmp	r3, r2
ffff0b94:	1a00001f 	bne	0xffff0c18
ffff0b98:	e59450c0 	ldr	r5, [r4, #192]	; 0xc0
ffff0b9c:	e5950058 	ldr	r0, [r5, #88]	; 0x58
ffff0ba0:	e5951050 	ldr	r1, [r5, #80]	; 0x50
ffff0ba4:	e2800b01 	add	r0, r0, #1024	; 0x400
ffff0ba8:	e2411b01 	sub	r1, r1, #1024	; 0x400
ffff0bac:	eb0003d7 	bl	0xffff1b10
ffff0bb0:	e1a06000 	mov	r6, r0
ffff0bb4:	e5952054 	ldr	r2, [r5, #84]	; 0x54
ffff0bb8:	e59f0088 	ldr	r0, [pc, #136]	; 0xffff0c48
ffff0bbc:	e1a01006 	mov	r1, r6
ffff0bc0:	eb0003a3 	bl	0xffff1a54
ffff0bc4:	e5953054 	ldr	r3, [r5, #84]	; 0x54
ffff0bc8:	e1560003 	cmp	r6, r3
ffff0bcc:	1a00000c 	bne	0xffff0c04
ffff0bd0:	e5956060 	ldr	r6, [r5, #96]	; 0x60
ffff0bd4:	e59f5060 	ldr	r5, [pc, #96]	; 0xffff0c3c
ffff0bd8:	e59f006c 	ldr	r0, [pc, #108]	; 0xffff0c4c
ffff0bdc:	e1a01006 	mov	r1, r6
ffff0be0:	eb00039b 	bl	0xffff1a54
ffff0be4:	e59f0064 	ldr	r0, [pc, #100]	; 0xffff0c50
ffff0be8:	eb000399 	bl	0xffff1a54
ffff0bec:	eb0002af 	bl	0xffff16b0
ffff0bf0:	e3500000 	cmp	r0, #0
ffff0bf4:	0a000001 	beq	0xffff0c00
ffff0bf8:	e2555001 	subs	r5, r5, #1
ffff0bfc:	1afffffa 	bne	0xffff0bec
ffff0c00:	e12fff36 	blx	r6
ffff0c04:	e3e03000 	mvn	r3, #0
ffff0c08:	e59f0044 	ldr	r0, [pc, #68]	; 0xffff0c54
ffff0c0c:	e58430d0 	str	r3, [r4, #208]	; 0xd0
ffff0c10:	eb00038f 	bl	0xffff1a54
ffff0c14:	ea000001 	b	0xffff0c20
ffff0c18:	e59f0038 	ldr	r0, [pc, #56]	; 0xffff0c58
ffff0c1c:	eb00038c 	bl	0xffff1a54
ffff0c20:	e59f0034 	ldr	r0, [pc, #52]	; 0xffff0c5c
ffff0c24:	e28dd008 	add	sp, sp, #8
ffff0c28:	e8bd41f0 	pop	{r4, r5, r6, r7, r8, lr}
ffff0c2c:	ea000388 	b	0xffff1a54
ffff0c30:	ffff51e4 			; <UNDEFINED> instruction: 0xffff51e4
ffff0c34:	50575200 	subspl	r5, r7, r0, lsl #4
ffff0c38:	ffff4636 			; <UNDEFINED> instruction: 0xffff4636
ffff0c3c:	00100001 	andseq	r0, r0, r1
ffff0c40:	ffff4673 			; <UNDEFINED> instruction: 0xffff4673
ffff0c44:	41544600 	cmpmi	r4, r0, lsl #12
ffff0c48:	ffff4695 			; <UNDEFINED> instruction: 0xffff4695
ffff0c4c:	ffff46c3 			; <UNDEFINED> instruction: 0xffff46c3
ffff0c50:	ffff46d4 			; <UNDEFINED> instruction: 0xffff46d4
ffff0c54:	ffff46f3 			; <UNDEFINED> instruction: 0xffff46f3
ffff0c58:	ffff4718 			; <UNDEFINED> instruction: 0xffff4718
ffff0c5c:	ffff475a 			; <UNDEFINED> instruction: 0xffff475a
ffff0c60:	e59f315c 	ldr	r3, [pc, #348]	; 0xffff0dc4
ffff0c64:	e92d4070 	push	{r4, r5, r6, lr}
ffff0c68:	e5934000 	ldr	r4, [r3]
ffff0c6c:	e5943168 	ldr	r3, [r4, #360]	; 0x168
ffff0c70:	e203200f 	and	r2, r3, #15
ffff0c74:	e59431ac 	ldr	r3, [r4, #428]	; 0x1ac
ffff0c78:	e1a03203 	lsl	r3, r3, #4
ffff0c7c:	e6ef3073 	uxtb	r3, r3
ffff0c80:	e1833002 	orr	r3, r3, r2
ffff0c84:	e35300fe 	cmp	r3, #254	; 0xfe
ffff0c88:	1afffff7 	bne	0xffff0c6c
ffff0c8c:	e5943130 	ldr	r3, [r4, #304]	; 0x130
ffff0c90:	e3c33d07 	bic	r3, r3, #448	; 0x1c0
ffff0c94:	e5843130 	str	r3, [r4, #304]	; 0x130
ffff0c98:	e5943130 	ldr	r3, [r4, #304]	; 0x130
ffff0c9c:	e3130749 	tst	r3, #19136512	; 0x1240000
ffff0ca0:	1afffffc 	bne	0xffff0c98
ffff0ca4:	e59f011c 	ldr	r0, [pc, #284]	; 0xffff0dc8
ffff0ca8:	eb000373 	bl	0xffff1a7c
ffff0cac:	eb000277 	bl	0xffff1690
ffff0cb0:	e3500000 	cmp	r0, #0
ffff0cb4:	0afffffc 	beq	0xffff0cac
ffff0cb8:	eb00027c 	bl	0xffff16b0
ffff0cbc:	e2506000 	subs	r6, r0, #0
ffff0cc0:	1afffffc 	bne	0xffff0cb8
ffff0cc4:	eb000441 	bl	0xffff1dd0
ffff0cc8:	e59f30fc 	ldr	r3, [pc, #252]	; 0xffff0dcc
ffff0ccc:	e3a01001 	mov	r1, #1
ffff0cd0:	e3e02000 	mvn	r2, #0
ffff0cd4:	e59f00f4 	ldr	r0, [pc, #244]	; 0xffff0dd0
ffff0cd8:	e5935000 	ldr	r5, [r3]
ffff0cdc:	e58562ac 	str	r6, [r5, #684]	; 0x2ac
ffff0ce0:	e5953224 	ldr	r3, [r5, #548]	; 0x224
ffff0ce4:	e383360f 	orr	r3, r3, #15728640	; 0xf00000
ffff0ce8:	e3833a0f 	orr	r3, r3, #61440	; 0xf000
ffff0cec:	e5853224 	str	r3, [r5, #548]	; 0x224
ffff0cf0:	e5953224 	ldr	r3, [r5, #548]	; 0x224
ffff0cf4:	e3c3380f 	bic	r3, r3, #983040	; 0xf0000
ffff0cf8:	e3c33c0f 	bic	r3, r3, #3840	; 0xf00
ffff0cfc:	e5853224 	str	r3, [r5, #548]	; 0x224
ffff0d00:	e59f30cc 	ldr	r3, [pc, #204]	; 0xffff0dd4
ffff0d04:	e5933000 	ldr	r3, [r3]
ffff0d08:	e5831000 	str	r1, [r3]
ffff0d0c:	e5900000 	ldr	r0, [r0]
ffff0d10:	e58320dc 	str	r2, [r3, #220]	; 0xdc
ffff0d14:	e58320e8 	str	r2, [r3, #232]	; 0xe8
ffff0d18:	e58320f4 	str	r2, [r3, #244]	; 0xf4
ffff0d1c:	e5832100 	str	r2, [r3, #256]	; 0x100
ffff0d20:	e58300e0 	str	r0, [r3, #224]	; 0xe0
ffff0d24:	e59f00ac 	ldr	r0, [pc, #172]	; 0xffff0dd8
ffff0d28:	e5900000 	ldr	r0, [r0]
ffff0d2c:	e58300ec 	str	r0, [r3, #236]	; 0xec
ffff0d30:	e59f00a4 	ldr	r0, [pc, #164]	; 0xffff0ddc
ffff0d34:	e5900000 	ldr	r0, [r0]
ffff0d38:	e58300f8 	str	r0, [r3, #248]	; 0xf8
ffff0d3c:	e59f009c 	ldr	r0, [pc, #156]	; 0xffff0de0
ffff0d40:	e5900000 	ldr	r0, [r0]
ffff0d44:	e5830104 	str	r0, [r3, #260]	; 0x104
ffff0d48:	e583210c 	str	r2, [r3, #268]	; 0x10c
ffff0d4c:	e5831110 	str	r1, [r3, #272]	; 0x110
ffff0d50:	e5932064 	ldr	r2, [r3, #100]	; 0x64
ffff0d54:	e3520000 	cmp	r2, #0
ffff0d58:	0a000009 	beq	0xffff0d84
ffff0d5c:	e320f003 	wfi
ffff0d60:	eb000467 	bl	0xffff1f04
ffff0d64:	e3a00032 	mov	r0, #50	; 0x32
ffff0d68:	eb000194 	bl	0xffff13c0
ffff0d6c:	e59f0070 	ldr	r0, [pc, #112]	; 0xffff0de4
ffff0d70:	eb000341 	bl	0xffff1a7c
ffff0d74:	e5943130 	ldr	r3, [r4, #304]	; 0x130
ffff0d78:	e3833d07 	orr	r3, r3, #448	; 0x1c0
ffff0d7c:	e5843130 	str	r3, [r4, #304]	; 0x130
ffff0d80:	ea00000a 	b	0xffff0db0
ffff0d84:	e3a02fff 	mov	r2, #1020	; 0x3fc
ffff0d88:	e3a00f96 	mov	r0, #600	; 0x258
ffff0d8c:	e583209c 	str	r2, [r3, #156]	; 0x9c
ffff0d90:	e3a020ff 	mov	r2, #255	; 0xff
ffff0d94:	e5831098 	str	r1, [r3, #152]	; 0x98
ffff0d98:	e5832064 	str	r2, [r3, #100]	; 0x64
ffff0d9c:	eb000187 	bl	0xffff13c0
ffff0da0:	e3a03002 	mov	r3, #2
ffff0da4:	e5853228 	str	r3, [r5, #552]	; 0x228
ffff0da8:	e320f003 	wfi
ffff0dac:	eafffffc 	b	0xffff0da4
ffff0db0:	e5943130 	ldr	r3, [r4, #304]	; 0x130
ffff0db4:	e2033749 	and	r3, r3, #19136512	; 0x1240000
ffff0db8:	e3530749 	cmp	r3, #19136512	; 0x1240000
ffff0dbc:	1afffffb 	bne	0xffff0db0
ffff0dc0:	e8bd8070 	pop	{r4, r5, r6, pc}
ffff0dc4:	ffff51e0 			; <UNDEFINED> instruction: 0xffff51e0
ffff0dc8:	ffff476b 			; <UNDEFINED> instruction: 0xffff476b
ffff0dcc:	ffff51d8 			; <UNDEFINED> instruction: 0xffff51d8
ffff0dd0:	ffff5484 			; <UNDEFINED> instruction: 0xffff5484
ffff0dd4:	ffff51e4 			; <UNDEFINED> instruction: 0xffff51e4
ffff0dd8:	ffff5478 			; <UNDEFINED> instruction: 0xffff5478
ffff0ddc:	ffff5470 			; <UNDEFINED> instruction: 0xffff5470
ffff0de0:	ffff5488 			; <UNDEFINED> instruction: 0xffff5488
ffff0de4:	ffff4790 			; <UNDEFINED> instruction: 0xffff4790
ffff0de8:	e92d4070 	push	{r4, r5, r6, lr}
ffff0dec:	e1a05000 	mov	r5, r0
ffff0df0:	e59f405c 	ldr	r4, [pc, #92]	; 0xffff0e54
ffff0df4:	eb0000b3 	bl	0xffff10c8
ffff0df8:	e59f3058 	ldr	r3, [pc, #88]	; 0xffff0e58
ffff0dfc:	e3a020ff 	mov	r2, #255	; 0xff
ffff0e00:	e2850030 	add	r0, r5, #48	; 0x30
ffff0e04:	e1a06004 	mov	r6, r4
ffff0e08:	e5933000 	ldr	r3, [r3]
ffff0e0c:	e2833a01 	add	r3, r3, #4096	; 0x1000
ffff0e10:	e5832100 	str	r2, [r3, #256]	; 0x100
ffff0e14:	e59f3040 	ldr	r3, [pc, #64]	; 0xffff0e5c
ffff0e18:	e3a02000 	mov	r2, #0
ffff0e1c:	e5933000 	ldr	r3, [r3]
ffff0e20:	e58322a4 	str	r2, [r3, #676]	; 0x2a4
ffff0e24:	e3a03001 	mov	r3, #1
ffff0e28:	e5843038 	str	r3, [r4, #56]	; 0x38
ffff0e2c:	eb000205 	bl	0xffff1648
ffff0e30:	e320f003 	wfi
ffff0e34:	e5943030 	ldr	r3, [r4, #48]	; 0x30
ffff0e38:	e3730001 	cmn	r3, #1
ffff0e3c:	0afffffb 	beq	0xffff0e30
ffff0e40:	e5962034 	ldr	r2, [r6, #52]	; 0x34
ffff0e44:	e1550002 	cmp	r5, r2
ffff0e48:	1afffff8 	bne	0xffff0e30
ffff0e4c:	e12fff33 	blx	r3
ffff0e50:	eafffff6 	b	0xffff0e30
ffff0e54:	c0010200 	andgt	r0, r1, r0, lsl #4
ffff0e58:	ffff51d4 			; <UNDEFINED> instruction: 0xffff51d4
ffff0e5c:	ffff51d8 			; <UNDEFINED> instruction: 0xffff51d8
ffff0e60:	e59f3034 	ldr	r3, [pc, #52]	; 0xffff0e9c
ffff0e64:	e3a01007 	mov	r1, #7
ffff0e68:	e92d4010 	push	{r4, lr}
ffff0e6c:	e59f002c 	ldr	r0, [pc, #44]	; 0xffff0ea0
ffff0e70:	e5933000 	ldr	r3, [r3]
ffff0e74:	e2832a02 	add	r2, r3, #8192	; 0x2000
ffff0e78:	e2833a01 	add	r3, r3, #4096	; 0x1000
ffff0e7c:	e5821000 	str	r1, [r2]
ffff0e80:	e3a010ff 	mov	r1, #255	; 0xff
ffff0e84:	e5821004 	str	r1, [r2, #4]
ffff0e88:	e3a02003 	mov	r2, #3
ffff0e8c:	e5832000 	str	r2, [r3]
ffff0e90:	eb0002f9 	bl	0xffff1a7c
ffff0e94:	e3a00000 	mov	r0, #0
ffff0e98:	ebffffd2 	bl	0xffff0de8
ffff0e9c:	ffff51d4 			; <UNDEFINED> instruction: 0xffff51d4
ffff0ea0:	ffff47b4 			; <UNDEFINED> instruction: 0xffff47b4
ffff0ea4:	e92d4010 	push	{r4, lr}
ffff0ea8:	e59f40bc 	ldr	r4, [pc, #188]	; 0xffff0f6c
ffff0eac:	eb000357 	bl	0xffff1c10
ffff0eb0:	e5840000 	str	r0, [r4]
ffff0eb4:	e3050dc0 	movw	r0, #24000	; 0x5dc0
ffff0eb8:	eb000357 	bl	0xffff1c1c
ffff0ebc:	e5941000 	ldr	r1, [r4]
ffff0ec0:	e59f30a8 	ldr	r3, [pc, #168]	; 0xffff0f70
ffff0ec4:	e59f20a8 	ldr	r2, [pc, #168]	; 0xffff0f74
ffff0ec8:	e59f00a8 	ldr	r0, [pc, #168]	; 0xffff0f78
ffff0ecc:	e5813008 	str	r3, [r1, #8]
ffff0ed0:	e581300c 	str	r3, [r1, #12]
ffff0ed4:	e5812010 	str	r2, [r1, #16]
ffff0ed8:	e3002601 	movw	r2, #1537	; 0x601
ffff0edc:	e5813014 	str	r3, [r1, #20]
ffff0ee0:	e59f3094 	ldr	r3, [pc, #148]	; 0xffff0f7c
ffff0ee4:	e5813050 	str	r3, [r1, #80]	; 0x50
ffff0ee8:	e3a03f41 	mov	r3, #260	; 0x104
ffff0eec:	e5813054 	str	r3, [r1, #84]	; 0x54
ffff0ef0:	e3a03f82 	mov	r3, #520	; 0x208
ffff0ef4:	e5812020 	str	r2, [r1, #32]
ffff0ef8:	e5813024 	str	r3, [r1, #36]	; 0x24
ffff0efc:	e5810028 	str	r0, [r1, #40]	; 0x28
ffff0f00:	e581302c 	str	r3, [r1, #44]	; 0x2c
ffff0f04:	e5813030 	str	r3, [r1, #48]	; 0x30
ffff0f08:	e5813034 	str	r3, [r1, #52]	; 0x34
ffff0f0c:	e3a03038 	mov	r3, #56	; 0x38
ffff0f10:	e5813038 	str	r3, [r1, #56]	; 0x38
ffff0f14:	e300320b 	movw	r3, #523	; 0x20b
ffff0f18:	e581203c 	str	r2, [r1, #60]	; 0x3c
ffff0f1c:	e3a02602 	mov	r2, #2097152	; 0x200000
ffff0f20:	e5813040 	str	r3, [r1, #64]	; 0x40
ffff0f24:	e5b10228 	ldr	r0, [r1, #552]!	; 0x228
ffff0f28:	e3800902 	orr	r0, r0, #32768	; 0x8000
ffff0f2c:	ebfffd73 	bl	0xffff0500
ffff0f30:	e5942000 	ldr	r2, [r4]
ffff0f34:	e59f3044 	ldr	r3, [pc, #68]	; 0xffff0f80
ffff0f38:	e5921228 	ldr	r1, [r2, #552]	; 0x228
ffff0f3c:	e3110902 	tst	r1, #32768	; 0x8000
ffff0f40:	1a000005 	bne	0xffff0f5c
ffff0f44:	e5920228 	ldr	r0, [r2, #552]	; 0x228
ffff0f48:	e2100902 	ands	r0, r0, #32768	; 0x8000
ffff0f4c:	08bd8010 	popeq	{r4, pc}
ffff0f50:	e59f002c 	ldr	r0, [pc, #44]	; 0xffff0f84
ffff0f54:	eb0002be 	bl	0xffff1a54
ffff0f58:	ea000002 	b	0xffff0f68
ffff0f5c:	e2533001 	subs	r3, r3, #1
ffff0f60:	1afffff4 	bne	0xffff0f38
ffff0f64:	eafffff6 	b	0xffff0f44
ffff0f68:	eafffffe 	b	0xffff0f68
ffff0f6c:	ffff542c 			; <UNDEFINED> instruction: 0xffff542c
ffff0f70:	100cc801 	andne	ip, ip, r1, lsl #16
ffff0f74:	50086601 	andpl	r6, r8, r1, lsl #12
ffff0f78:	00208003 	eoreq	r8, r0, r3
ffff0f7c:	66660104 	strbtvs	r0, [r6], -r4, lsl #2
ffff0f80:	00100001 	andseq	r0, r0, r1
ffff0f84:	ffff47cd 			; <UNDEFINED> instruction: 0xffff47cd
ffff0f88:	e12fff1e 	bx	lr
ffff0f8c:	e59f304c 	ldr	r3, [pc, #76]	; 0xffff0fe0
ffff0f90:	e5932004 	ldr	r2, [r3, #4]
ffff0f94:	e2831a01 	add	r1, r3, #4096	; 0x1000
ffff0f98:	e3822001 	orr	r2, r2, #1
ffff0f9c:	e5832004 	str	r2, [r3, #4]
ffff0fa0:	e5932004 	ldr	r2, [r3, #4]
ffff0fa4:	e3822002 	orr	r2, r2, #2
ffff0fa8:	e5832004 	str	r2, [r3, #4]
ffff0fac:	e3a02008 	mov	r2, #8
ffff0fb0:	e5832000 	str	r2, [r3]
ffff0fb4:	e3a02000 	mov	r2, #0
ffff0fb8:	e5812000 	str	r2, [r1]
ffff0fbc:	e2831a02 	add	r1, r3, #8192	; 0x2000
ffff0fc0:	e5812000 	str	r2, [r1]
ffff0fc4:	e2831a03 	add	r1, r3, #12288	; 0x3000
ffff0fc8:	e5812000 	str	r2, [r1]
ffff0fcc:	e2831a05 	add	r1, r3, #20480	; 0x5000
ffff0fd0:	e2833901 	add	r3, r3, #16384	; 0x4000
ffff0fd4:	e5812000 	str	r2, [r1]
ffff0fd8:	e5832000 	str	r2, [r3]
ffff0fdc:	e12fff1e 	bx	lr
ffff0fe0:	e0090000 	and	r0, r9, r0
ffff0fe4:	e1a032a0 	lsr	r3, r0, #5
ffff0fe8:	e3510000 	cmp	r1, #0
ffff0fec:	e200001f 	and	r0, r0, #31
ffff0ff0:	e2033003 	and	r3, r3, #3
ffff0ff4:	e3a01001 	mov	r1, #1
ffff0ff8:	e1a03103 	lsl	r3, r3, #2
ffff0ffc:	e2833103 	add	r3, r3, #-1073741824	; 0xc0000000
ffff1000:	e2833a12 	add	r3, r3, #73728	; 0x12000
ffff1004:	e5932000 	ldr	r2, [r3]
ffff1008:	11c20011 	bicne	r0, r2, r1, lsl r0
ffff100c:	01820011 	orreq	r0, r2, r1, lsl r0
ffff1010:	e5830000 	str	r0, [r3]
ffff1014:	e12fff1e 	bx	lr
ffff1018:	e7e033d0 	ubfx	r3, r0, #7, #1
ffff101c:	e7e22450 	ubfx	r2, r0, #8, #3
ffff1020:	e1a03103 	lsl	r3, r3, #2
ffff1024:	e7e311d0 	ubfx	r1, r0, #3, #4
ffff1028:	e1a01081 	lsl	r1, r1, #1
ffff102c:	e0833602 	add	r3, r3, r2, lsl #12
ffff1030:	e3a0c003 	mov	ip, #3
ffff1034:	e2833103 	add	r3, r3, #-1073741824	; 0xc0000000
ffff1038:	e000000c 	and	r0, r0, ip
ffff103c:	e2833a1a 	add	r3, r3, #106496	; 0x1a000
ffff1040:	e5932020 	ldr	r2, [r3, #32]
ffff1044:	e1c2211c 	bic	r2, r2, ip, lsl r1
ffff1048:	e1820110 	orr	r0, r2, r0, lsl r1
ffff104c:	e5830020 	str	r0, [r3, #32]
ffff1050:	e12fff1e 	bx	lr
ffff1054:	e1a00600 	lsl	r0, r0, #12
ffff1058:	e3a0c001 	mov	ip, #1
ffff105c:	e1a0111c 	lsl	r1, ip, r1
ffff1060:	e2800103 	add	r0, r0, #-1073741824	; 0xc0000000
ffff1064:	e2800a1a 	add	r0, r0, #106496	; 0x1a000
ffff1068:	e3520000 	cmp	r2, #0
ffff106c:	e590305c 	ldr	r3, [r0, #92]	; 0x5c
ffff1070:	e1813003 	orr	r3, r1, r3
ffff1074:	e580305c 	str	r3, [r0, #92]	; 0x5c
ffff1078:	e5903064 	ldr	r3, [r0, #100]	; 0x64
ffff107c:	e1813003 	orr	r3, r1, r3
ffff1080:	e5803064 	str	r3, [r0, #100]	; 0x64
ffff1084:	05903058 	ldreq	r3, [r0, #88]	; 0x58
ffff1088:	01c33001 	biceq	r3, r3, r1
ffff108c:	0a000003 	beq	0xffff10a0
ffff1090:	e3520001 	cmp	r2, #1
ffff1094:	1a000005 	bne	0xffff10b0
ffff1098:	e5903058 	ldr	r3, [r0, #88]	; 0x58
ffff109c:	e1813003 	orr	r3, r1, r3
ffff10a0:	e5803058 	str	r3, [r0, #88]	; 0x58
ffff10a4:	e5903060 	ldr	r3, [r0, #96]	; 0x60
ffff10a8:	e1811003 	orr	r1, r1, r3
ffff10ac:	ea000003 	b	0xffff10c0
ffff10b0:	e3520002 	cmp	r2, #2
ffff10b4:	112fff1e 	bxne	lr
ffff10b8:	e5903060 	ldr	r3, [r0, #96]	; 0x60
ffff10bc:	e1c31001 	bic	r1, r3, r1
ffff10c0:	e5801060 	str	r1, [r0, #96]	; 0x60
ffff10c4:	e12fff1e 	bx	lr
ffff10c8:	e59f3050 	ldr	r3, [pc, #80]	; 0xffff1120
ffff10cc:	e3a010ff 	mov	r1, #255	; 0xff
ffff10d0:	e5933000 	ldr	r3, [r3]
ffff10d4:	e2832a02 	add	r2, r3, #8192	; 0x2000
ffff10d8:	e2833a01 	add	r3, r3, #4096	; 0x1000
ffff10dc:	e5821004 	str	r1, [r2, #4]
ffff10e0:	e30011cb 	movw	r1, #459	; 0x1cb
ffff10e4:	e5821000 	str	r1, [r2]
ffff10e8:	e3a02000 	mov	r2, #0
ffff10ec:	e5832400 	str	r2, [r3, #1024]	; 0x400
ffff10f0:	e5832404 	str	r2, [r3, #1028]	; 0x404
ffff10f4:	e5832408 	str	r2, [r3, #1032]	; 0x408
ffff10f8:	e583240c 	str	r2, [r3, #1036]	; 0x40c
ffff10fc:	e5832410 	str	r2, [r3, #1040]	; 0x410
ffff1100:	e5832414 	str	r2, [r3, #1044]	; 0x414
ffff1104:	e5832418 	str	r2, [r3, #1048]	; 0x418
ffff1108:	e583241c 	str	r2, [r3, #1052]	; 0x41c
ffff110c:	e3e02000 	mvn	r2, #0
ffff1110:	e5832180 	str	r2, [r3, #384]	; 0x180
ffff1114:	e5832280 	str	r2, [r3, #640]	; 0x280
ffff1118:	e5832080 	str	r2, [r3, #128]	; 0x80
ffff111c:	e12fff1e 	bx	lr
ffff1120:	ffff51d4 			; <UNDEFINED> instruction: 0xffff51d4
ffff1124:	e59f3148 	ldr	r3, [pc, #328]	; 0xffff1274
ffff1128:	e59f0148 	ldr	r0, [pc, #328]	; 0xffff1278
ffff112c:	e92d41f0 	push	{r4, r5, r6, r7, r8, lr}
ffff1130:	e3a0500c 	mov	r5, #12
ffff1134:	e5931000 	ldr	r1, [r3]
ffff1138:	e3a03000 	mov	r3, #0
ffff113c:	e2804010 	add	r4, r0, #16
ffff1140:	e19320b0 	ldrh	r2, [r3, r0]
ffff1144:	e0817583 	add	r7, r1, r3, lsl #11
ffff1148:	e1a08083 	lsl	r8, r3, #1
ffff114c:	e7812583 	str	r2, [r1, r3, lsl #11]
ffff1150:	e3a02000 	mov	r2, #0
ffff1154:	e082c008 	add	ip, r2, r8
ffff1158:	e7d4e10c 	ldrb	lr, [r4, ip, lsl #2]
ffff115c:	e02c7295 	mla	ip, r5, r2, r7
ffff1160:	e2822001 	add	r2, r2, #1
ffff1164:	e3520004 	cmp	r2, #4
ffff1168:	e1e0600e 	mvn	r6, lr
ffff116c:	e58c6808 	str	r6, [ip, #2056]	; 0x808
ffff1170:	e58ce804 	str	lr, [ip, #2052]	; 0x804
ffff1174:	1afffff6 	bne	0xffff1154
ffff1178:	e2833002 	add	r3, r3, #2
ffff117c:	e353000e 	cmp	r3, #14
ffff1180:	1affffee 	bne	0xffff1140
ffff1184:	e59f30f0 	ldr	r3, [pc, #240]	; 0xffff127c
ffff1188:	e3a02001 	mov	r2, #1
ffff118c:	e3a01000 	mov	r1, #0
ffff1190:	e59f00e8 	ldr	r0, [pc, #232]	; 0xffff1280
ffff1194:	e5832004 	str	r2, [r3, #4]
ffff1198:	e5933000 	ldr	r3, [r3]
ffff119c:	e59f20e0 	ldr	r2, [pc, #224]	; 0xffff1284
ffff11a0:	e203300f 	and	r3, r3, #15
ffff11a4:	e1a03203 	lsl	r3, r3, #4
ffff11a8:	e0832002 	add	r2, r3, r2
ffff11ac:	e59f30d0 	ldr	r3, [pc, #208]	; 0xffff1284
ffff11b0:	e1530002 	cmp	r3, r2
ffff11b4:	e3a04000 	mov	r4, #0
ffff11b8:	15831000 	strne	r1, [r3]
ffff11bc:	12833010 	addne	r3, r3, #16
ffff11c0:	15031014 	strne	r1, [r3, #-20]	; 0xffffffec
ffff11c4:	1503000c 	strne	r0, [r3, #-12]
ffff11c8:	1afffff8 	bne	0xffff11b0
ffff11cc:	e59f30a8 	ldr	r3, [pc, #168]	; 0xffff127c
ffff11d0:	e3a0247e 	mov	r2, #2113929216	; 0x7e000000
ffff11d4:	e3e05000 	mvn	r5, #0
ffff11d8:	e5834114 	str	r4, [r3, #276]	; 0x114
ffff11dc:	e5832110 	str	r2, [r3, #272]	; 0x110
ffff11e0:	e59f20a0 	ldr	r2, [pc, #160]	; 0xffff1288
ffff11e4:	e5832118 	str	r2, [r3, #280]	; 0x118
ffff11e8:	e5834030 	str	r4, [r3, #48]	; 0x30
ffff11ec:	ebffffb5 	bl	0xffff10c8
ffff11f0:	e59f3094 	ldr	r3, [pc, #148]	; 0xffff128c
ffff11f4:	e3a0e009 	mov	lr, #9
ffff11f8:	e3a01001 	mov	r1, #1
ffff11fc:	e5930000 	ldr	r0, [r3]
ffff1200:	e2803a01 	add	r3, r0, #4096	; 0x1000
ffff1204:	e5834000 	str	r4, [r3]
ffff1208:	e5934004 	ldr	r4, [r3, #4]
ffff120c:	e59f307c 	ldr	r3, [pc, #124]	; 0xffff1290
ffff1210:	e204401f 	and	r4, r4, #31
ffff1214:	e1510004 	cmp	r1, r4
ffff1218:	8a000014 	bhi	0xffff1270
ffff121c:	e080c101 	add	ip, r0, r1, lsl #2
ffff1220:	e1a02181 	lsl	r2, r1, #3
ffff1224:	e28cca01 	add	ip, ip, #4096	; 0x1000
ffff1228:	e2822c05 	add	r2, r2, #1280	; 0x500
ffff122c:	e2811001 	add	r1, r1, #1
ffff1230:	e58c5180 	str	r5, [ip, #384]	; 0x180
ffff1234:	e58c5280 	str	r5, [ip, #640]	; 0x280
ffff1238:	e7803102 	str	r3, [r0, r2, lsl #2]
ffff123c:	e28e2c05 	add	r2, lr, #1280	; 0x500
ffff1240:	e7803102 	str	r3, [r0, r2, lsl #2]
ffff1244:	e080210e 	add	r2, r0, lr, lsl #2
ffff1248:	e28ee008 	add	lr, lr, #8
ffff124c:	e2822a01 	add	r2, r2, #4096	; 0x1000
ffff1250:	e5823404 	str	r3, [r2, #1028]	; 0x404
ffff1254:	e5823408 	str	r3, [r2, #1032]	; 0x408
ffff1258:	e582340c 	str	r3, [r2, #1036]	; 0x40c
ffff125c:	e5823410 	str	r3, [r2, #1040]	; 0x410
ffff1260:	e5823414 	str	r3, [r2, #1044]	; 0x414
ffff1264:	e5823418 	str	r3, [r2, #1048]	; 0x418
ffff1268:	e58c5080 	str	r5, [ip, #128]	; 0x80
ffff126c:	eaffffe8 	b	0xffff1214
ffff1270:	e8bd81f0 	pop	{r4, r5, r6, r7, r8, pc}
ffff1274:	ffff51d0 			; <UNDEFINED> instruction: 0xffff51d0
ffff1278:	ffff4804 			; <UNDEFINED> instruction: 0xffff4804
ffff127c:	c00e5000 	andgt	r5, lr, r0
ffff1280:	f000ff40 			; <UNDEFINED> instruction: 0xf000ff40
ffff1284:	c00e5114 	andgt	r5, lr, r4, lsl r1
ffff1288:	c0002001 	andgt	r2, r0, r1
ffff128c:	ffff51d4 			; <UNDEFINED> instruction: 0xffff51d4
ffff1290:	80808080 	addhi	r8, r0, r0, lsl #1
ffff1294:	e3510000 	cmp	r1, #0
ffff1298:	0a000020 	beq	0xffff1320
ffff129c:	e1510000 	cmp	r1, r0
ffff12a0:	8a000020 	bhi	0xffff1328
ffff12a4:	13a0c000 	movne	ip, #0
ffff12a8:	13a02020 	movne	r2, #32
ffff12ac:	11a0300c 	movne	r3, ip
ffff12b0:	0a00001e 	beq	0xffff1330
ffff12b4:	e1530001 	cmp	r3, r1
ffff12b8:	2a000005 	bcs	0xffff12d4
ffff12bc:	e1a0cfa0 	lsr	ip, r0, #31
ffff12c0:	e2422001 	sub	r2, r2, #1
ffff12c4:	e18c3083 	orr	r3, ip, r3, lsl #1
ffff12c8:	e1a0c000 	mov	ip, r0
ffff12cc:	e1a00080 	lsl	r0, r0, #1
ffff12d0:	eafffff7 	b	0xffff12b4
ffff12d4:	e92d4030 	push	{r4, r5, lr}
ffff12d8:	e1a030a3 	lsr	r3, r3, #1
ffff12dc:	e3a0e000 	mov	lr, #0
ffff12e0:	e2822001 	add	r2, r2, #1
ffff12e4:	e1a0000e 	mov	r0, lr
ffff12e8:	e15e0002 	cmp	lr, r2
ffff12ec:	2a00000a 	bcs	0xffff131c
ffff12f0:	e1a04fac 	lsr	r4, ip, #31
ffff12f4:	e28ee001 	add	lr, lr, #1
ffff12f8:	e1a0c08c 	lsl	ip, ip, #1
ffff12fc:	e1843083 	orr	r3, r4, r3, lsl #1
ffff1300:	e0614003 	rsb	r4, r1, r3
ffff1304:	e1e05004 	mvn	r5, r4
ffff1308:	e1a05fa5 	lsr	r5, r5, #31
ffff130c:	e3550000 	cmp	r5, #0
ffff1310:	e1850080 	orr	r0, r5, r0, lsl #1
ffff1314:	11a03004 	movne	r3, r4
ffff1318:	eafffff2 	b	0xffff12e8
ffff131c:	e8bd8030 	pop	{r4, r5, pc}
ffff1320:	e3e00000 	mvn	r0, #0
ffff1324:	e12fff1e 	bx	lr
ffff1328:	e3a00000 	mov	r0, #0
ffff132c:	e12fff1e 	bx	lr
ffff1330:	e3a00001 	mov	r0, #1
ffff1334:	e12fff1e 	bx	lr
ffff1338:	e3510000 	cmp	r1, #0
ffff133c:	0a00001b 	beq	0xffff13b0
ffff1340:	e1510000 	cmp	r1, r0
ffff1344:	812fff1e 	bxhi	lr
ffff1348:	13a02000 	movne	r2, #0
ffff134c:	13a03020 	movne	r3, #32
ffff1350:	11a0c002 	movne	ip, r2
ffff1354:	0a000017 	beq	0xffff13b8
ffff1358:	e15c0001 	cmp	ip, r1
ffff135c:	2a000005 	bcs	0xffff1378
ffff1360:	e1a02fa0 	lsr	r2, r0, #31
ffff1364:	e2433001 	sub	r3, r3, #1
ffff1368:	e182c08c 	orr	ip, r2, ip, lsl #1
ffff136c:	e1a02000 	mov	r2, r0
ffff1370:	e1a00080 	lsl	r0, r0, #1
ffff1374:	eafffff7 	b	0xffff1358
ffff1378:	e1a000ac 	lsr	r0, ip, #1
ffff137c:	e2833001 	add	r3, r3, #1
ffff1380:	e3a0c000 	mov	ip, #0
ffff1384:	e52de004 	push	{lr}		; (str lr, [sp, #-4]!)
ffff1388:	e15c0003 	cmp	ip, r3
ffff138c:	2a000006 	bcs	0xffff13ac
ffff1390:	e1a0efa2 	lsr	lr, r2, #31
ffff1394:	e28cc001 	add	ip, ip, #1
ffff1398:	e1a02082 	lsl	r2, r2, #1
ffff139c:	e18e0080 	orr	r0, lr, r0, lsl #1
ffff13a0:	e050e001 	subs	lr, r0, r1
ffff13a4:	51a0000e 	movpl	r0, lr
ffff13a8:	eafffff6 	b	0xffff1388
ffff13ac:	e49df004 	pop	{pc}		; (ldr pc, [sp], #4)
ffff13b0:	e3e00000 	mvn	r0, #0
ffff13b4:	e12fff1e 	bx	lr
ffff13b8:	e3a00000 	mov	r0, #0
ffff13bc:	e12fff1e 	bx	lr
ffff13c0:	e24dd008 	sub	sp, sp, #8
ffff13c4:	e3a03000 	mov	r3, #0
ffff13c8:	e58d3000 	str	r3, [sp]
ffff13cc:	e59d3000 	ldr	r3, [sp]
ffff13d0:	e1530000 	cmp	r3, r0
ffff13d4:	aa000006 	bge	0xffff13f4
ffff13d8:	e59d3000 	ldr	r3, [sp]
ffff13dc:	e59d2004 	ldr	r2, [sp, #4]
ffff13e0:	e0233002 	eor	r3, r3, r2
ffff13e4:	e58d3004 	str	r3, [sp, #4]
ffff13e8:	e59d3000 	ldr	r3, [sp]
ffff13ec:	e2833001 	add	r3, r3, #1
ffff13f0:	eafffff4 	b	0xffff13c8
ffff13f4:	e28dd008 	add	sp, sp, #8
ffff13f8:	e12fff1e 	bx	lr
ffff13fc:	e92d4013 	push	{r0, r1, r4, lr}
ffff1400:	e3e03a0f 	mvn	r3, #61440	; 0xf000
ffff1404:	e59f0034 	ldr	r0, [pc, #52]	; 0xffff1440
ffff1408:	e5134bdb 	ldr	r4, [r3, #-3035]	; 0xfffff425
ffff140c:	eb000190 	bl	0xffff1a54
ffff1410:	e59f302c 	ldr	r3, [pc, #44]	; 0xffff1444
ffff1414:	e59f002c 	ldr	r0, [pc, #44]	; 0xffff1448
ffff1418:	e7e31654 	ubfx	r1, r4, #12, #4
ffff141c:	e7e32454 	ubfx	r2, r4, #8, #4
ffff1420:	e58d3000 	str	r3, [sp]
ffff1424:	e59f3020 	ldr	r3, [pc, #32]	; 0xffff144c
ffff1428:	e58d3004 	str	r3, [sp, #4]
ffff142c:	e6ef3074 	uxtb	r3, r4
ffff1430:	eb000187 	bl	0xffff1a54
ffff1434:	e3a00000 	mov	r0, #0
ffff1438:	e28dd008 	add	sp, sp, #8
ffff143c:	e8bd8010 	pop	{r4, pc}
ffff1440:	ffff48ad 			; <UNDEFINED> instruction: 0xffff48ad
ffff1444:	ffff48b0 			; <UNDEFINED> instruction: 0xffff48b0
ffff1448:	ffff4884 			; <UNDEFINED> instruction: 0xffff4884
ffff144c:	ffff48ba 			; <UNDEFINED> instruction: 0xffff48ba
ffff1450:	e92d47f0 	push	{r4, r5, r6, r7, r8, r9, sl, lr}
ffff1454:	e1a05000 	mov	r5, r0
ffff1458:	e59f41b0 	ldr	r4, [pc, #432]	; 0xffff1610
ffff145c:	e24dd018 	sub	sp, sp, #24
ffff1460:	e1a0a085 	lsl	sl, r5, #1
ffff1464:	e1a0c00d 	mov	ip, sp
ffff1468:	e59f91a4 	ldr	r9, [pc, #420]	; 0xffff1614
ffff146c:	e1a0e004 	mov	lr, r4
ffff1470:	e8be000f 	ldm	lr!, {r0, r1, r2, r3}
ffff1474:	e8ac000f 	stmia	ip!, {r0, r1, r2, r3}
ffff1478:	e28d3018 	add	r3, sp, #24
ffff147c:	e89e0003 	ldm	lr, {r0, r1}
ffff1480:	e284e018 	add	lr, r4, #24
ffff1484:	e0836105 	add	r6, r3, r5, lsl #2
ffff1488:	e88c0003 	stm	ip, {r0, r1}
ffff148c:	e1a0c00d 	mov	ip, sp
ffff1490:	e5167018 	ldr	r7, [r6, #-24]	; 0xffffffe8
ffff1494:	e8be000f 	ldm	lr!, {r0, r1, r2, r3}
ffff1498:	e8ac000f 	stmia	ip!, {r0, r1, r2, r3}
ffff149c:	e89e0003 	ldm	lr, {r0, r1}
ffff14a0:	e88c0003 	stm	ip, {r0, r1}
ffff14a4:	e5163018 	ldr	r3, [r6, #-24]	; 0xffffffe8
ffff14a8:	e3050dc0 	movw	r0, #24000	; 0x5dc0
ffff14ac:	e3a06001 	mov	r6, #1
ffff14b0:	e5893000 	str	r3, [r9]
ffff14b4:	eb0001d8 	bl	0xffff1c1c
ffff14b8:	e3a00000 	mov	r0, #0
ffff14bc:	eb0001da 	bl	0xffff1c2c
ffff14c0:	e08a2005 	add	r2, sl, r5
ffff14c4:	e1a08000 	mov	r8, r0
ffff14c8:	e0843102 	add	r3, r4, r2, lsl #2
ffff14cc:	e084a10a 	add	sl, r4, sl, lsl #2
ffff14d0:	e5931030 	ldr	r1, [r3, #48]	; 0x30
ffff14d4:	e59f313c 	ldr	r3, [pc, #316]	; 0xffff1618
ffff14d8:	e7eac2d1 	ubfx	ip, r1, #5, #11
ffff14dc:	e201101f 	and	r1, r1, #31
ffff14e0:	e5933000 	ldr	r3, [r3]
ffff14e4:	e793010c 	ldr	r0, [r3, ip, lsl #2]
ffff14e8:	e1c01116 	bic	r1, r0, r6, lsl r1
ffff14ec:	e783110c 	str	r1, [r3, ip, lsl #2]
ffff14f0:	e0841102 	add	r1, r4, r2, lsl #2
ffff14f4:	e0842102 	add	r2, r4, r2, lsl #2
ffff14f8:	e5911034 	ldr	r1, [r1, #52]	; 0x34
ffff14fc:	e5922038 	ldr	r2, [r2, #56]	; 0x38
ffff1500:	e7eac2d1 	ubfx	ip, r1, #5, #11
ffff1504:	e201101f 	and	r1, r1, #31
ffff1508:	e793010c 	ldr	r0, [r3, ip, lsl #2]
ffff150c:	e1c01116 	bic	r1, r0, r6, lsl r1
ffff1510:	e7ea02d2 	ubfx	r0, r2, #5, #11
ffff1514:	e202201f 	and	r2, r2, #31
ffff1518:	e783110c 	str	r1, [r3, ip, lsl #2]
ffff151c:	e7931100 	ldr	r1, [r3, r0, lsl #2]
ffff1520:	e1c12216 	bic	r2, r1, r6, lsl r2
ffff1524:	e7832100 	str	r2, [r3, r0, lsl #2]
ffff1528:	e0843185 	add	r3, r4, r5, lsl #3
ffff152c:	e5930078 	ldr	r0, [r3, #120]	; 0x78
ffff1530:	ebfffeb8 	bl	0xffff1018
ffff1534:	e59a007c 	ldr	r0, [sl, #124]	; 0x7c
ffff1538:	ebfffeb6 	bl	0xffff1018
ffff153c:	e5b400a8 	ldr	r0, [r4, #168]!	; 0xa8
ffff1540:	e1a01006 	mov	r1, r6
ffff1544:	e1d430b4 	ldrh	r3, [r4, #4]
ffff1548:	e58d0000 	str	r0, [sp]
ffff154c:	e1cd30b4 	strh	r3, [sp, #4]
ffff1550:	e28d3018 	add	r3, sp, #24
ffff1554:	e0835005 	add	r5, r3, r5
ffff1558:	e5554018 	ldrb	r4, [r5, #-24]	; 0xffffffe8
ffff155c:	e1a00004 	mov	r0, r4
ffff1560:	ebfffe9f 	bl	0xffff0fe4
ffff1564:	e1a00004 	mov	r0, r4
ffff1568:	e3a01000 	mov	r1, #0
ffff156c:	e59f40a8 	ldr	r4, [pc, #168]	; 0xffff161c
ffff1570:	ebfffe9b 	bl	0xffff0fe4
ffff1574:	e3a03008 	mov	r3, #8
ffff1578:	e3a02003 	mov	r2, #3
ffff157c:	e1a00008 	mov	r0, r8
ffff1580:	e3a01004 	mov	r1, #4
ffff1584:	e5873000 	str	r3, [r7]
ffff1588:	e3a03060 	mov	r3, #96	; 0x60
ffff158c:	e5873004 	str	r3, [r7, #4]
ffff1590:	e5993000 	ldr	r3, [r9]
ffff1594:	e5832000 	str	r2, [r3]
ffff1598:	e59f2080 	ldr	r2, [pc, #128]	; 0xffff1620
ffff159c:	e5832004 	str	r2, [r3, #4]
ffff15a0:	e3002441 	movw	r2, #1089	; 0x441
ffff15a4:	e5832008 	str	r2, [r3, #8]
ffff15a8:	e3a02000 	mov	r2, #0
ffff15ac:	e583200c 	str	r2, [r3, #12]
ffff15b0:	ebffff37 	bl	0xffff1294
ffff15b4:	e1a01004 	mov	r1, r4
ffff15b8:	ebffff35 	bl	0xffff1294
ffff15bc:	e5993000 	ldr	r3, [r9]
ffff15c0:	e2400001 	sub	r0, r0, #1
ffff15c4:	e3a01004 	mov	r1, #4
ffff15c8:	e5830028 	str	r0, [r3, #40]	; 0x28
ffff15cc:	e1a00008 	mov	r0, r8
ffff15d0:	ebffff2f 	bl	0xffff1294
ffff15d4:	e1a01004 	mov	r1, r4
ffff15d8:	ebffff56 	bl	0xffff1338
ffff15dc:	e2800020 	add	r0, r0, #32
ffff15e0:	e1a01004 	mov	r1, r4
ffff15e4:	e1a00200 	lsl	r0, r0, #4
ffff15e8:	ebffff29 	bl	0xffff1294
ffff15ec:	e5993000 	ldr	r3, [r9]
ffff15f0:	e3a0200c 	mov	r2, #12
ffff15f4:	e583002c 	str	r0, [r3, #44]	; 0x2c
ffff15f8:	e1a00006 	mov	r0, r6
ffff15fc:	e5872000 	str	r2, [r7]
ffff1600:	e59f201c 	ldr	r2, [pc, #28]	; 0xffff1624
ffff1604:	e5832004 	str	r2, [r3, #4]
ffff1608:	e28dd018 	add	sp, sp, #24
ffff160c:	e8bd87f0 	pop	{r4, r5, r6, r7, r8, r9, sl, pc}
ffff1610:	ffff48d0 			; <UNDEFINED> instruction: 0xffff48d0
ffff1614:	ffff5430 			; <UNDEFINED> instruction: 0xffff5430
ffff1618:	ffff51e0 			; <UNDEFINED> instruction: 0xffff51e0
ffff161c:	001c2000 	andseq	r2, ip, r0
ffff1620:	00113340 	andseq	r3, r1, r0, asr #6
ffff1624:	00113345 	andseq	r3, r1, r5, asr #6
ffff1628:	e59f3014 	ldr	r3, [pc, #20]	; 0xffff1644
ffff162c:	e5933000 	ldr	r3, [r3]
ffff1630:	e5932018 	ldr	r2, [r3, #24]
ffff1634:	e3120010 	tst	r2, #16
ffff1638:	1afffffc 	bne	0xffff1630
ffff163c:	e5930024 	ldr	r0, [r3, #36]	; 0x24
ffff1640:	e12fff1e 	bx	lr
ffff1644:	ffff5430 			; <UNDEFINED> instruction: 0xffff5430
ffff1648:	e59f3014 	ldr	r3, [pc, #20]	; 0xffff1664
ffff164c:	e5933000 	ldr	r3, [r3]
ffff1650:	e5932018 	ldr	r2, [r3, #24]
ffff1654:	e3120401 	tst	r2, #16777216	; 0x1000000
ffff1658:	1afffffc 	bne	0xffff1650
ffff165c:	e5830020 	str	r0, [r3, #32]
ffff1660:	e12fff1e 	bx	lr
ffff1664:	ffff5430 			; <UNDEFINED> instruction: 0xffff5430
ffff1668:	e59f301c 	ldr	r3, [pc, #28]	; 0xffff168c
ffff166c:	e5932000 	ldr	r2, [r3]
ffff1670:	e5923018 	ldr	r3, [r2, #24]
ffff1674:	e7e73853 	ubfx	r3, r3, #16, #8
ffff1678:	e3530000 	cmp	r3, #0
ffff167c:	05920010 	ldreq	r0, [r2, #16]
ffff1680:	07e00150 	ubfxeq	r0, r0, #2, #1
ffff1684:	13a00000 	movne	r0, #0
ffff1688:	e12fff1e 	bx	lr
ffff168c:	ffff5430 			; <UNDEFINED> instruction: 0xffff5430
ffff1690:	e59f3014 	ldr	r3, [pc, #20]	; 0xffff16ac
ffff1694:	e5933000 	ldr	r3, [r3]
ffff1698:	e5930018 	ldr	r0, [r3, #24]
ffff169c:	e7e70850 	ubfx	r0, r0, #16, #8
ffff16a0:	e16f0f10 	clz	r0, r0
ffff16a4:	e1a002a0 	lsr	r0, r0, #5
ffff16a8:	e12fff1e 	bx	lr
ffff16ac:	ffff5430 			; <UNDEFINED> instruction: 0xffff5430
ffff16b0:	e59f300c 	ldr	r3, [pc, #12]	; 0xffff16c4
ffff16b4:	e5933000 	ldr	r3, [r3]
ffff16b8:	e5930010 	ldr	r0, [r3, #16]
ffff16bc:	e7e00150 	ubfx	r0, r0, #2, #1
ffff16c0:	e12fff1e 	bx	lr
ffff16c4:	ffff5430 			; <UNDEFINED> instruction: 0xffff5430
ffff16c8:	e92d41f0 	push	{r4, r5, r6, r7, r8, lr}
ffff16cc:	e2514000 	subs	r4, r1, #0
ffff16d0:	e1a05000 	mov	r5, r0
ffff16d4:	d3a07020 	movle	r7, #32
ffff16d8:	da00000a 	ble	0xffff1708
ffff16dc:	e1a03000 	mov	r3, r0
ffff16e0:	e0650003 	rsb	r0, r5, r3
ffff16e4:	e4d31001 	ldrb	r1, [r3], #1
ffff16e8:	e3510000 	cmp	r1, #0
ffff16ec:	1afffffb 	bne	0xffff16e0
ffff16f0:	e1500004 	cmp	r0, r4
ffff16f4:	b0604004 	rsblt	r4, r0, r4
ffff16f8:	a1a04001 	movge	r4, r1
ffff16fc:	e3120002 	tst	r2, #2
ffff1700:	03a07020 	moveq	r7, #32
ffff1704:	13a07030 	movne	r7, #48	; 0x30
ffff1708:	e3120001 	tst	r2, #1
ffff170c:	01a06004 	moveq	r6, r4
ffff1710:	1a000008 	bne	0xffff1738
ffff1714:	e3560000 	cmp	r6, #0
ffff1718:	da000003 	ble	0xffff172c
ffff171c:	e1a00007 	mov	r0, r7
ffff1720:	e2466001 	sub	r6, r6, #1
ffff1724:	ebffffc7 	bl	0xffff1648
ffff1728:	eafffff9 	b	0xffff1714
ffff172c:	e1c43fc4 	bic	r3, r4, r4, asr #31
ffff1730:	e0634004 	rsb	r4, r3, r4
ffff1734:	ea000000 	b	0xffff173c
ffff1738:	e3a03000 	mov	r3, #0
ffff173c:	e0656003 	rsb	r6, r5, r3
ffff1740:	e0868005 	add	r8, r6, r5
ffff1744:	e4d50001 	ldrb	r0, [r5], #1
ffff1748:	e3500000 	cmp	r0, #0
ffff174c:	0a000001 	beq	0xffff1758
ffff1750:	ebffffbc 	bl	0xffff1648
ffff1754:	eafffff9 	b	0xffff1740
ffff1758:	e1a05004 	mov	r5, r4
ffff175c:	e3550000 	cmp	r5, #0
ffff1760:	da000003 	ble	0xffff1774
ffff1764:	e1a00007 	mov	r0, r7
ffff1768:	e2455001 	sub	r5, r5, #1
ffff176c:	ebffffb5 	bl	0xffff1648
ffff1770:	eafffff9 	b	0xffff175c
ffff1774:	e3540000 	cmp	r4, #0
ffff1778:	a0880004 	addge	r0, r8, r4
ffff177c:	b2880000 	addlt	r0, r8, #0
ffff1780:	e8bd81f0 	pop	{r4, r5, r6, r7, r8, pc}
ffff1784:	e3500000 	cmp	r0, #0
ffff1788:	e92d47f0 	push	{r4, r5, r6, r7, r8, r9, sl, lr}
ffff178c:	e24dd018 	sub	sp, sp, #24
ffff1790:	e1a0a003 	mov	sl, r3
ffff1794:	e59d7038 	ldr	r7, [sp, #56]	; 0x38
ffff1798:	1a000007 	bne	0xffff17bc
ffff179c:	e3a03030 	mov	r3, #48	; 0x30
ffff17a0:	e5cd0001 	strb	r0, [sp, #1]
ffff17a4:	e1a0100a 	mov	r1, sl
ffff17a8:	e1a0000d 	mov	r0, sp
ffff17ac:	e1a02007 	mov	r2, r7
ffff17b0:	e5cd3000 	strb	r3, [sp]
ffff17b4:	ebffffc3 	bl	0xffff16c8
ffff17b8:	ea000031 	b	0xffff1884
ffff17bc:	e2922000 	adds	r2, r2, #0
ffff17c0:	e59d903c 	ldr	r9, [sp, #60]	; 0x3c
ffff17c4:	e28d6018 	add	r6, sp, #24
ffff17c8:	13a02001 	movne	r2, #1
ffff17cc:	e351000a 	cmp	r1, #10
ffff17d0:	13a02000 	movne	r2, #0
ffff17d4:	e1a08001 	mov	r8, r1
ffff17d8:	e0123fa0 	ands	r3, r2, r0, lsr #31
ffff17dc:	e3a03000 	mov	r3, #0
ffff17e0:	e249903a 	sub	r9, r9, #58	; 0x3a
ffff17e4:	01a05000 	moveq	r5, r0
ffff17e8:	01a04003 	moveq	r4, r3
ffff17ec:	e5663003 	strb	r3, [r6, #-3]!
ffff17f0:	12605000 	rsbne	r5, r0, #0
ffff17f4:	13a04001 	movne	r4, #1
ffff17f8:	e3550000 	cmp	r5, #0
ffff17fc:	0a00000b 	beq	0xffff1830
ffff1800:	e1a00005 	mov	r0, r5
ffff1804:	e1a01008 	mov	r1, r8
ffff1808:	ebfffeca 	bl	0xffff1338
ffff180c:	e3500009 	cmp	r0, #9
ffff1810:	e1a01008 	mov	r1, r8
ffff1814:	c0800009 	addgt	r0, r0, r9
ffff1818:	e2800030 	add	r0, r0, #48	; 0x30
ffff181c:	e5660001 	strb	r0, [r6, #-1]!
ffff1820:	e1a00005 	mov	r0, r5
ffff1824:	ebfffe9a 	bl	0xffff1294
ffff1828:	e1a05000 	mov	r5, r0
ffff182c:	eafffff1 	b	0xffff17f8
ffff1830:	e3540000 	cmp	r4, #0
ffff1834:	e1a03006 	mov	r3, r6
ffff1838:	0a00000c 	beq	0xffff1870
ffff183c:	e35a0000 	cmp	sl, #0
ffff1840:	0a000006 	beq	0xffff1860
ffff1844:	e3170002 	tst	r7, #2
ffff1848:	0a000004 	beq	0xffff1860
ffff184c:	e3a0002d 	mov	r0, #45	; 0x2d
ffff1850:	e24aa001 	sub	sl, sl, #1
ffff1854:	ebffff7b 	bl	0xffff1648
ffff1858:	e3a04001 	mov	r4, #1
ffff185c:	ea000003 	b	0xffff1870
ffff1860:	e3a0202d 	mov	r2, #45	; 0x2d
ffff1864:	e2466001 	sub	r6, r6, #1
ffff1868:	e3a04000 	mov	r4, #0
ffff186c:	e5432001 	strb	r2, [r3, #-1]
ffff1870:	e1a00006 	mov	r0, r6
ffff1874:	e1a0100a 	mov	r1, sl
ffff1878:	e1a02007 	mov	r2, r7
ffff187c:	ebffff91 	bl	0xffff16c8
ffff1880:	e0840000 	add	r0, r4, r0
ffff1884:	e28dd018 	add	sp, sp, #24
ffff1888:	e8bd87f0 	pop	{r4, r5, r6, r7, r8, r9, sl, pc}
ffff188c:	e92d40f0 	push	{r4, r5, r6, r7, lr}
ffff1890:	e1a05000 	mov	r5, r0
ffff1894:	e59f71b4 	ldr	r7, [pc, #436]	; 0xffff1a50
ffff1898:	e24dd01c 	sub	sp, sp, #28
ffff189c:	e3a04000 	mov	r4, #0
ffff18a0:	e3a0600a 	mov	r6, #10
ffff18a4:	e58d100c 	str	r1, [sp, #12]
ffff18a8:	e5d53000 	ldrb	r3, [r5]
ffff18ac:	e3530000 	cmp	r3, #0
ffff18b0:	0a000063 	beq	0xffff1a44
ffff18b4:	e3530025 	cmp	r3, #37	; 0x25
ffff18b8:	1a00005c 	bne	0xffff1a30
ffff18bc:	e5d52001 	ldrb	r2, [r5, #1]
ffff18c0:	e2853001 	add	r3, r5, #1
ffff18c4:	e3520000 	cmp	r2, #0
ffff18c8:	0a00005d 	beq	0xffff1a44
ffff18cc:	e3520025 	cmp	r2, #37	; 0x25
ffff18d0:	0a000055 	beq	0xffff1a2c
ffff18d4:	e352002d 	cmp	r2, #45	; 0x2d
ffff18d8:	02853002 	addeq	r3, r5, #2
ffff18dc:	03a02001 	moveq	r2, #1
ffff18e0:	13a02000 	movne	r2, #0
ffff18e4:	e1a00003 	mov	r0, r3
ffff18e8:	e2833001 	add	r3, r3, #1
ffff18ec:	e5d01000 	ldrb	r1, [r0]
ffff18f0:	e3510030 	cmp	r1, #48	; 0x30
ffff18f4:	03822002 	orreq	r2, r2, #2
ffff18f8:	0afffff9 	beq	0xffff18e4
ffff18fc:	e3a03000 	mov	r3, #0
ffff1900:	e5d01000 	ldrb	r1, [r0]
ffff1904:	e1a05000 	mov	r5, r0
ffff1908:	e2800001 	add	r0, r0, #1
ffff190c:	e241c030 	sub	ip, r1, #48	; 0x30
ffff1910:	e6efe07c 	uxtb	lr, ip
ffff1914:	e35e0009 	cmp	lr, #9
ffff1918:	9023c396 	mlals	r3, r6, r3, ip
ffff191c:	9afffff7 	bls	0xffff1900
ffff1920:	e3510073 	cmp	r1, #115	; 0x73
ffff1924:	1a000006 	bne	0xffff1944
ffff1928:	e59d100c 	ldr	r1, [sp, #12]
ffff192c:	e2810004 	add	r0, r1, #4
ffff1930:	e58d000c 	str	r0, [sp, #12]
ffff1934:	e5910000 	ldr	r0, [r1]
ffff1938:	e3500000 	cmp	r0, #0
ffff193c:	01a00007 	moveq	r0, r7
ffff1940:	ea000036 	b	0xffff1a20
ffff1944:	e3510064 	cmp	r1, #100	; 0x64
ffff1948:	1a00000b 	bne	0xffff197c
ffff194c:	e59d100c 	ldr	r1, [sp, #12]
ffff1950:	e58d2000 	str	r2, [sp]
ffff1954:	e3a02061 	mov	r2, #97	; 0x61
ffff1958:	e58d2004 	str	r2, [sp, #4]
ffff195c:	e3a02001 	mov	r2, #1
ffff1960:	e2810004 	add	r0, r1, #4
ffff1964:	e58d000c 	str	r0, [sp, #12]
ffff1968:	e5910000 	ldr	r0, [r1]
ffff196c:	e3a0100a 	mov	r1, #10
ffff1970:	ebffff83 	bl	0xffff1784
ffff1974:	e0844000 	add	r4, r4, r0
ffff1978:	ea00002f 	b	0xffff1a3c
ffff197c:	e3510078 	cmp	r1, #120	; 0x78
ffff1980:	1a000005 	bne	0xffff199c
ffff1984:	e59d100c 	ldr	r1, [sp, #12]
ffff1988:	e58d2000 	str	r2, [sp]
ffff198c:	e3a02061 	mov	r2, #97	; 0x61
ffff1990:	e2810004 	add	r0, r1, #4
ffff1994:	e58d000c 	str	r0, [sp, #12]
ffff1998:	ea000006 	b	0xffff19b8
ffff199c:	e3510058 	cmp	r1, #88	; 0x58
ffff19a0:	1a000008 	bne	0xffff19c8
ffff19a4:	e59d100c 	ldr	r1, [sp, #12]
ffff19a8:	e58d2000 	str	r2, [sp]
ffff19ac:	e3a02041 	mov	r2, #65	; 0x41
ffff19b0:	e2810004 	add	r0, r1, #4
ffff19b4:	e58d000c 	str	r0, [sp, #12]
ffff19b8:	e58d2004 	str	r2, [sp, #4]
ffff19bc:	e5910000 	ldr	r0, [r1]
ffff19c0:	e3a01010 	mov	r1, #16
ffff19c4:	ea000009 	b	0xffff19f0
ffff19c8:	e3510075 	cmp	r1, #117	; 0x75
ffff19cc:	1a000009 	bne	0xffff19f8
ffff19d0:	e59d100c 	ldr	r1, [sp, #12]
ffff19d4:	e58d2000 	str	r2, [sp]
ffff19d8:	e3a02061 	mov	r2, #97	; 0x61
ffff19dc:	e58d2004 	str	r2, [sp, #4]
ffff19e0:	e2810004 	add	r0, r1, #4
ffff19e4:	e58d000c 	str	r0, [sp, #12]
ffff19e8:	e5910000 	ldr	r0, [r1]
ffff19ec:	e3a0100a 	mov	r1, #10
ffff19f0:	e3a02000 	mov	r2, #0
ffff19f4:	eaffffdd 	b	0xffff1970
ffff19f8:	e3510063 	cmp	r1, #99	; 0x63
ffff19fc:	1a00000e 	bne	0xffff1a3c
ffff1a00:	e59d100c 	ldr	r1, [sp, #12]
ffff1a04:	e2810004 	add	r0, r1, #4
ffff1a08:	e5911000 	ldr	r1, [r1]
ffff1a0c:	e58d000c 	str	r0, [sp, #12]
ffff1a10:	e28d0014 	add	r0, sp, #20
ffff1a14:	e5cd1014 	strb	r1, [sp, #20]
ffff1a18:	e3a01000 	mov	r1, #0
ffff1a1c:	e5cd1015 	strb	r1, [sp, #21]
ffff1a20:	e1a01003 	mov	r1, r3
ffff1a24:	ebffff27 	bl	0xffff16c8
ffff1a28:	eaffffd1 	b	0xffff1974
ffff1a2c:	e1a05003 	mov	r5, r3
ffff1a30:	e5d50000 	ldrb	r0, [r5]
ffff1a34:	e2844001 	add	r4, r4, #1
ffff1a38:	ebffff02 	bl	0xffff1648
ffff1a3c:	e2855001 	add	r5, r5, #1
ffff1a40:	eaffff98 	b	0xffff18a8
ffff1a44:	e1a00004 	mov	r0, r4
ffff1a48:	e28dd01c 	add	sp, sp, #28
ffff1a4c:	e8bd80f0 	pop	{r4, r5, r6, r7, pc}
ffff1a50:	ffff4980 			; <UNDEFINED> instruction: 0xffff4980
ffff1a54:	e92d000f 	push	{r0, r1, r2, r3}
ffff1a58:	e92d4007 	push	{r0, r1, r2, lr}
ffff1a5c:	e28d1014 	add	r1, sp, #20
ffff1a60:	e59d0010 	ldr	r0, [sp, #16]
ffff1a64:	e58d1004 	str	r1, [sp, #4]
ffff1a68:	ebffff87 	bl	0xffff188c
ffff1a6c:	e28dd00c 	add	sp, sp, #12
ffff1a70:	e49de004 	pop	{lr}		; (ldr lr, [sp], #4)
ffff1a74:	e28dd010 	add	sp, sp, #16
ffff1a78:	e12fff1e 	bx	lr
ffff1a7c:	e92d000f 	push	{r0, r1, r2, r3}
ffff1a80:	e3a00000 	mov	r0, #0
ffff1a84:	e28dd010 	add	sp, sp, #16
ffff1a88:	e12fff1e 	bx	lr
ffff1a8c:	e0200001 	eor	r0, r0, r1
ffff1a90:	e3a03008 	mov	r3, #8
ffff1a94:	e3100001 	tst	r0, #1
ffff1a98:	e1a020a0 	lsr	r2, r0, #1
ffff1a9c:	159f0010 	ldrne	r0, [pc, #16]	; 0xffff1ab4
ffff1aa0:	01a00002 	moveq	r0, r2
ffff1aa4:	10200002 	eorne	r0, r0, r2
ffff1aa8:	e2533001 	subs	r3, r3, #1
ffff1aac:	1afffff8 	bne	0xffff1a94
ffff1ab0:	e12fff1e 	bx	lr
ffff1ab4:	edb88320 	ldc	3, cr8, [r8, #128]!	; 0x80
ffff1ab8:	e0200001 	eor	r0, r0, r1
ffff1abc:	e3a03010 	mov	r3, #16
ffff1ac0:	e3100001 	tst	r0, #1
ffff1ac4:	e1a020c0 	asr	r2, r0, #1
ffff1ac8:	159f0010 	ldrne	r0, [pc, #16]	; 0xffff1ae0
ffff1acc:	01a00002 	moveq	r0, r2
ffff1ad0:	10200002 	eorne	r0, r0, r2
ffff1ad4:	e2533001 	subs	r3, r3, #1
ffff1ad8:	1afffff8 	bne	0xffff1ac0
ffff1adc:	e12fff1e 	bx	lr
ffff1ae0:	edb88320 	ldc	3, cr8, [r8, #128]!	; 0x80
ffff1ae4:	e0200001 	eor	r0, r0, r1
ffff1ae8:	e3a03020 	mov	r3, #32
ffff1aec:	e3100001 	tst	r0, #1
ffff1af0:	e1a020a0 	lsr	r2, r0, #1
ffff1af4:	159f0010 	ldrne	r0, [pc, #16]	; 0xffff1b0c
ffff1af8:	01a00002 	moveq	r0, r2
ffff1afc:	10200002 	eorne	r0, r0, r2
ffff1b00:	e2533001 	subs	r3, r3, #1
ffff1b04:	1afffff8 	bne	0xffff1aec
ffff1b08:	e12fff1e 	bx	lr
ffff1b0c:	edb88320 	ldc	3, cr8, [r8, #128]!	; 0x80
ffff1b10:	e92d4070 	push	{r4, r5, r6, lr}
ffff1b14:	e2811003 	add	r1, r1, #3
ffff1b18:	e3a05004 	mov	r5, #4
ffff1b1c:	e3a04000 	mov	r4, #0
ffff1b20:	e1a06000 	mov	r6, r0
ffff1b24:	e1a00004 	mov	r0, r4
ffff1b28:	e715f511 	sdiv	r5, r1, r5
ffff1b2c:	e1540005 	cmp	r4, r5
ffff1b30:	0a000003 	beq	0xffff1b44
ffff1b34:	e7961104 	ldr	r1, [r6, r4, lsl #2]
ffff1b38:	e2844001 	add	r4, r4, #1
ffff1b3c:	ebffffe8 	bl	0xffff1ae4
ffff1b40:	eafffff9 	b	0xffff1b2c
ffff1b44:	e8bd8070 	pop	{r4, r5, r6, pc}
ffff1b48:	e92d4070 	push	{r4, r5, r6, lr}
ffff1b4c:	e1a04002 	mov	r4, r2
ffff1b50:	ebffffee 	bl	0xffff1b10
ffff1b54:	e59f2028 	ldr	r2, [pc, #40]	; 0xffff1b84
ffff1b58:	e1540000 	cmp	r4, r0
ffff1b5c:	e1a03000 	mov	r3, r0
ffff1b60:	03a05000 	moveq	r5, #0
ffff1b64:	13e05000 	mvnne	r5, #0
ffff1b68:	e59f1018 	ldr	r1, [pc, #24]	; 0xffff1b88
ffff1b6c:	e59f0018 	ldr	r0, [pc, #24]	; 0xffff1b8c
ffff1b70:	11a01002 	movne	r1, r2
ffff1b74:	e1a02004 	mov	r2, r4
ffff1b78:	ebffffbf 	bl	0xffff1a7c
ffff1b7c:	e1a00005 	mov	r0, r5
ffff1b80:	e8bd8070 	pop	{r4, r5, r6, pc}
ffff1b84:	ffff4987 			; <UNDEFINED> instruction: 0xffff4987
ffff1b88:	ffff498e 			; <UNDEFINED> instruction: 0xffff498e
ffff1b8c:	ffff4996 			; <UNDEFINED> instruction: 0xffff4996
ffff1b90:	e59f3048 	ldr	r3, [pc, #72]	; 0xffff1be0
ffff1b94:	e5933000 	ldr	r3, [r3]
ffff1b98:	e5932178 	ldr	r2, [r3, #376]	; 0x178
ffff1b9c:	e3c227e3 	bic	r2, r2, #59506688	; 0x38c0000
ffff1ba0:	e3c22802 	bic	r2, r2, #131072	; 0x20000
ffff1ba4:	e3822882 	orr	r2, r2, #8519680	; 0x820000
ffff1ba8:	e5832178 	str	r2, [r3, #376]	; 0x178
ffff1bac:	e59321bc 	ldr	r2, [r3, #444]	; 0x1bc
ffff1bb0:	e3c227e3 	bic	r2, r2, #59506688	; 0x38c0000
ffff1bb4:	e3c22802 	bic	r2, r2, #131072	; 0x20000
ffff1bb8:	e3822882 	orr	r2, r2, #8519680	; 0x820000
ffff1bbc:	e58321bc 	str	r2, [r3, #444]	; 0x1bc
ffff1bc0:	e593217c 	ldr	r2, [r3, #380]	; 0x17c
ffff1bc4:	e3c224ff 	bic	r2, r2, #-16777216	; 0xff000000
ffff1bc8:	e3822401 	orr	r2, r2, #16777216	; 0x1000000
ffff1bcc:	e583217c 	str	r2, [r3, #380]	; 0x17c
ffff1bd0:	e5932180 	ldr	r2, [r3, #384]	; 0x180
ffff1bd4:	e20220f0 	and	r2, r2, #240	; 0xf0
ffff1bd8:	e5832180 	str	r2, [r3, #384]	; 0x180
ffff1bdc:	e12fff1e 	bx	lr
ffff1be0:	ffff51e0 			; <UNDEFINED> instruction: 0xffff51e0
ffff1be4:	e92d4010 	push	{r4, lr}
ffff1be8:	e59f1014 	ldr	r1, [pc, #20]	; 0xffff1c04
ffff1bec:	e59f0014 	ldr	r0, [pc, #20]	; 0xffff1c08
ffff1bf0:	ebffffa1 	bl	0xffff1a7c
ffff1bf4:	e59f0010 	ldr	r0, [pc, #16]	; 0xffff1c0c
ffff1bf8:	e3a01020 	mov	r1, #32
ffff1bfc:	e8bd4010 	pop	{r4, lr}
ffff1c00:	eaffff9d 	b	0xffff1a7c
ffff1c04:	ffff49d2 			; <UNDEFINED> instruction: 0xffff49d2
ffff1c08:	ffff49bd 			; <UNDEFINED> instruction: 0xffff49bd
ffff1c0c:	ffff49d7 			; <UNDEFINED> instruction: 0xffff49d7
ffff1c10:	e59f0000 	ldr	r0, [pc]	; 0xffff1c18
ffff1c14:	e12fff1e 	bx	lr
ffff1c18:	c0010000 	andgt	r0, r1, r0
ffff1c1c:	e59f3004 	ldr	r3, [pc, #4]	; 0xffff1c28
ffff1c20:	e5830000 	str	r0, [r3]
ffff1c24:	e12fff1e 	bx	lr
ffff1c28:	ffff5434 			; <UNDEFINED> instruction: 0xffff5434
ffff1c2c:	e59f3084 	ldr	r3, [pc, #132]	; 0xffff1cb8
ffff1c30:	e92d41f0 	push	{r4, r5, r6, r7, r8, lr}
ffff1c34:	e59f7080 	ldr	r7, [pc, #128]	; 0xffff1cbc
ffff1c38:	e5933000 	ldr	r3, [r3]
ffff1c3c:	e0833100 	add	r3, r3, r0, lsl #2
ffff1c40:	e5932008 	ldr	r2, [r3, #8]
ffff1c44:	e5933048 	ldr	r3, [r3, #72]	; 0x48
ffff1c48:	e7e56952 	ubfx	r6, r2, #18, #6
ffff1c4c:	e7e98452 	ubfx	r8, r2, #8, #10
ffff1c50:	e6ef5072 	uxtb	r5, r2
ffff1c54:	e1b02823 	lsrs	r2, r3, #16
ffff1c58:	13a03001 	movne	r3, #1
ffff1c5c:	03a03000 	moveq	r3, #0
ffff1c60:	e3500001 	cmp	r0, #1
ffff1c64:	93a04000 	movls	r4, #0
ffff1c68:	82034001 	andhi	r4, r3, #1
ffff1c6c:	e3540000 	cmp	r4, #0
ffff1c70:	0a000008 	beq	0xffff1c98
ffff1c74:	e3a00ffa 	mov	r0, #1000	; 0x3e8
ffff1c78:	e3a01801 	mov	r1, #65536	; 0x10000
ffff1c7c:	e0000290 	mul	r0, r0, r2
ffff1c80:	ebfffd83 	bl	0xffff1294
ffff1c84:	e5973000 	ldr	r3, [r7]
ffff1c88:	e1a01006 	mov	r1, r6
ffff1c8c:	e0000093 	mul	r0, r3, r0
ffff1c90:	ebfffd7f 	bl	0xffff1294
ffff1c94:	e1a04530 	lsr	r4, r0, r5
ffff1c98:	e5970000 	ldr	r0, [r7]
ffff1c9c:	e1a01006 	mov	r1, r6
ffff1ca0:	e0000890 	mul	r0, r0, r8
ffff1ca4:	ebfffd7a 	bl	0xffff1294
ffff1ca8:	e1a00530 	lsr	r0, r0, r5
ffff1cac:	e3a03ffa 	mov	r3, #1000	; 0x3e8
ffff1cb0:	e0204093 	mla	r0, r3, r0, r4
ffff1cb4:	e8bd81f0 	pop	{r4, r5, r6, r7, r8, pc}
ffff1cb8:	ffff542c 			; <UNDEFINED> instruction: 0xffff542c
ffff1cbc:	ffff5434 			; <UNDEFINED> instruction: 0xffff5434
ffff1cc0:	e59f3010 	ldr	r3, [pc, #16]	; 0xffff1cd8
ffff1cc4:	e2800008 	add	r0, r0, #8
ffff1cc8:	e5933000 	ldr	r3, [r3]
ffff1ccc:	e7930100 	ldr	r0, [r3, r0, lsl #2]
ffff1cd0:	e2000007 	and	r0, r0, #7
ffff1cd4:	e12fff1e 	bx	lr
ffff1cd8:	ffff542c 			; <UNDEFINED> instruction: 0xffff542c
ffff1cdc:	e59f303c 	ldr	r3, [pc, #60]	; 0xffff1d20
ffff1ce0:	e2800008 	add	r0, r0, #8
ffff1ce4:	e5933000 	ldr	r3, [r3]
ffff1ce8:	e7933100 	ldr	r3, [r3, r0, lsl #2]
ffff1cec:	e7e52ad3 	ubfx	r2, r3, #21, #6
ffff1cf0:	e2820001 	add	r0, r2, #1
ffff1cf4:	e7e527d3 	ubfx	r2, r3, #15, #6
ffff1cf8:	e2822001 	add	r2, r2, #1
ffff1cfc:	e1a02802 	lsl	r2, r2, #16
ffff1d00:	e1822c00 	orr	r2, r2, r0, lsl #24
ffff1d04:	e7e501d3 	ubfx	r0, r3, #3, #6
ffff1d08:	e2800001 	add	r0, r0, #1
ffff1d0c:	e7e534d3 	ubfx	r3, r3, #9, #6
ffff1d10:	e1820000 	orr	r0, r2, r0
ffff1d14:	e2833001 	add	r3, r3, #1
ffff1d18:	e1800403 	orr	r0, r0, r3, lsl #8
ffff1d1c:	e12fff1e 	bx	lr
ffff1d20:	ffff542c 			; <UNDEFINED> instruction: 0xffff542c
ffff1d24:	e92d4010 	push	{r4, lr}
ffff1d28:	e3a00004 	mov	r0, #4
ffff1d2c:	e3a0100c 	mov	r1, #12
ffff1d30:	e3a02000 	mov	r2, #0
ffff1d34:	ebfffcc6 	bl	0xffff1054
ffff1d38:	e3a00040 	mov	r0, #64	; 0x40
ffff1d3c:	ebfffd9f 	bl	0xffff13c0
ffff1d40:	e59f3020 	ldr	r3, [pc, #32]	; 0xffff1d68
ffff1d44:	e5933018 	ldr	r3, [r3, #24]
ffff1d48:	e3130a01 	tst	r3, #4096	; 0x1000
ffff1d4c:	0a000003 	beq	0xffff1d60
ffff1d50:	e59f0014 	ldr	r0, [pc, #20]	; 0xffff1d6c
ffff1d54:	ebffff3e 	bl	0xffff1a54
ffff1d58:	e3a00002 	mov	r0, #2
ffff1d5c:	e8bd8010 	pop	{r4, pc}
ffff1d60:	e3a00001 	mov	r0, #1
ffff1d64:	e8bd8010 	pop	{r4, pc}
ffff1d68:	c001e000 	andgt	lr, r1, r0
ffff1d6c:	ffff4a10 			; <UNDEFINED> instruction: 0xffff4a10
ffff1d70:	e3a00001 	mov	r0, #1
ffff1d74:	e12fff1e 	bx	lr
ffff1d78:	e59f3028 	ldr	r3, [pc, #40]	; 0xffff1da8
ffff1d7c:	e3a01001 	mov	r1, #1
ffff1d80:	e59f2024 	ldr	r2, [pc, #36]	; 0xffff1dac
ffff1d84:	e5933000 	ldr	r3, [r3]
ffff1d88:	e5922000 	ldr	r2, [r2]
ffff1d8c:	e3833902 	orr	r3, r3, #32768	; 0x8000
ffff1d90:	e5821000 	str	r1, [r2]
ffff1d94:	e3833014 	orr	r3, r3, #20
ffff1d98:	e3e01000 	mvn	r1, #0
ffff1d9c:	e58210e8 	str	r1, [r2, #232]	; 0xe8
ffff1da0:	e58230ec 	str	r3, [r2, #236]	; 0xec
ffff1da4:	e12fff1e 	bx	lr
ffff1da8:	ffff5474 			; <UNDEFINED> instruction: 0xffff5474
ffff1dac:	ffff51e4 			; <UNDEFINED> instruction: 0xffff51e4
ffff1db0:	e1833802 	orr	r3, r3, r2, lsl #16
ffff1db4:	e2011001 	and	r1, r1, #1
ffff1db8:	e59f200c 	ldr	r2, [pc, #12]	; 0xffff1dcc
ffff1dbc:	e1830c00 	orr	r0, r3, r0, lsl #24
ffff1dc0:	e1803a01 	orr	r3, r0, r1, lsl #20
ffff1dc4:	e5823010 	str	r3, [r2, #16]
ffff1dc8:	e12fff1e 	bx	lr
ffff1dcc:	c00e0000 	andgt	r0, lr, r0
ffff1dd0:	e59f3124 	ldr	r3, [pc, #292]	; 0xffff1efc
ffff1dd4:	e59f0124 	ldr	r0, [pc, #292]	; 0xffff1f00
ffff1dd8:	e92d4070 	push	{r4, r5, r6, lr}
ffff1ddc:	e5932000 	ldr	r2, [r3]
ffff1de0:	e1a05003 	mov	r5, r3
ffff1de4:	e3520001 	cmp	r2, #1
ffff1de8:	83a04003 	movhi	r4, #3
ffff1dec:	93a04001 	movls	r4, #1
ffff1df0:	e5901048 	ldr	r1, [r0, #72]	; 0x48
ffff1df4:	e59f3104 	ldr	r3, [pc, #260]	; 0xffff1f00
ffff1df8:	e311000f 	tst	r1, #15
ffff1dfc:	0a000001 	beq	0xffff1e08
ffff1e00:	e1a00000 	nop			; (mov r0, r0)
ffff1e04:	eafffff9 	b	0xffff1df0
ffff1e08:	e3520001 	cmp	r2, #1
ffff1e0c:	e3a01401 	mov	r1, #16777216	; 0x1000000
ffff1e10:	83a02611 	movhi	r2, #17825792	; 0x1100000
ffff1e14:	e3a00064 	mov	r0, #100	; 0x64
ffff1e18:	e5831010 	str	r1, [r3, #16]
ffff1e1c:	85832010 	strhi	r2, [r3, #16]
ffff1e20:	ebfffd66 	bl	0xffff13c0
ffff1e24:	e3a03000 	mov	r3, #0
ffff1e28:	e3a02003 	mov	r2, #3
ffff1e2c:	e59f00cc 	ldr	r0, [pc, #204]	; 0xffff1f00
ffff1e30:	e7cf301f 	bfc	r3, #0, #16
ffff1e34:	e7ca349f 	bfc	r3, #9, #2
ffff1e38:	e7c7339f 	bfc	r3, #7, #1
ffff1e3c:	e3833040 	orr	r3, r3, #64	; 0x40
ffff1e40:	e7c53192 	bfi	r3, r2, #3, #3
ffff1e44:	e6ff2073 	uxth	r2, r3
ffff1e48:	e7cf301f 	bfc	r3, #0, #16
ffff1e4c:	e3833001 	orr	r3, r3, #1
ffff1e50:	e3821802 	orr	r1, r2, #131072	; 0x20000
ffff1e54:	e7c4319f 	bfc	r3, #3, #2
ffff1e58:	e7c5329f 	bfc	r3, #5, #1
ffff1e5c:	e5801010 	str	r1, [r0, #16]
ffff1e60:	e5951000 	ldr	r1, [r5]
ffff1e64:	e3833002 	orr	r3, r3, #2
ffff1e68:	e7c9349f 	bfc	r3, #9, #1
ffff1e6c:	e7c6331f 	bfc	r3, #6, #1
ffff1e70:	e3833004 	orr	r3, r3, #4
ffff1e74:	e3510001 	cmp	r1, #1
ffff1e78:	83822812 	orrhi	r2, r2, #1179648	; 0x120000
ffff1e7c:	85802010 	strhi	r2, [r0, #16]
ffff1e80:	e30e2f7f 	movw	r2, #61311	; 0xef7f
ffff1e84:	e3510001 	cmp	r1, #1
ffff1e88:	e0022003 	and	r2, r2, r3
ffff1e8c:	e59f306c 	ldr	r3, [pc, #108]	; 0xffff1f00
ffff1e90:	e3820801 	orr	r0, r2, #65536	; 0x10000
ffff1e94:	83822811 	orrhi	r2, r2, #1114112	; 0x110000
ffff1e98:	e5830010 	str	r0, [r3, #16]
ffff1e9c:	85832010 	strhi	r2, [r3, #16]
ffff1ea0:	e3a02301 	mov	r2, #67108864	; 0x4000000
ffff1ea4:	e3510001 	cmp	r1, #1
ffff1ea8:	e5832010 	str	r2, [r3, #16]
ffff1eac:	859f304c 	ldrhi	r3, [pc, #76]	; 0xffff1f00
ffff1eb0:	83a02641 	movhi	r2, #68157440	; 0x4100000
ffff1eb4:	85832010 	strhi	r2, [r3, #16]
ffff1eb8:	e59f2040 	ldr	r2, [pc, #64]	; 0xffff1f00
ffff1ebc:	e5923048 	ldr	r3, [r2, #72]	; 0x48
ffff1ec0:	e59f1038 	ldr	r1, [pc, #56]	; 0xffff1f00
ffff1ec4:	e1140003 	tst	r4, r3
ffff1ec8:	1afffffb 	bne	0xffff1ebc
ffff1ecc:	e5912048 	ldr	r2, [r1, #72]	; 0x48
ffff1ed0:	e59f3028 	ldr	r3, [pc, #40]	; 0xffff1f00
ffff1ed4:	e0042422 	and	r2, r4, r2, lsr #8
ffff1ed8:	e1520004 	cmp	r2, r4
ffff1edc:	1afffffa 	bne	0xffff1ecc
ffff1ee0:	e5932000 	ldr	r2, [r3]
ffff1ee4:	e3c22020 	bic	r2, r2, #32
ffff1ee8:	e5832000 	str	r2, [r3]
ffff1eec:	e5932004 	ldr	r2, [r3, #4]
ffff1ef0:	e3822001 	orr	r2, r2, #1
ffff1ef4:	e5832004 	str	r2, [r3, #4]
ffff1ef8:	e8bd8070 	pop	{r4, r5, r6, pc}
ffff1efc:	ffff5474 			; <UNDEFINED> instruction: 0xffff5474
ffff1f00:	c00e0000 	andgt	r0, lr, r0
ffff1f04:	e92d4010 	push	{r4, lr}
ffff1f08:	e3a0000a 	mov	r0, #10
ffff1f0c:	e59f40d8 	ldr	r4, [pc, #216]	; 0xffff1fec
ffff1f10:	e5943004 	ldr	r3, [r4, #4]
ffff1f14:	e3c33001 	bic	r3, r3, #1
ffff1f18:	e5843004 	str	r3, [r4, #4]
ffff1f1c:	ebfffd27 	bl	0xffff13c0
ffff1f20:	e5943000 	ldr	r3, [r4]
ffff1f24:	e3a0000a 	mov	r0, #10
ffff1f28:	e3833020 	orr	r3, r3, #32
ffff1f2c:	e5843000 	str	r3, [r4]
ffff1f30:	ebfffd22 	bl	0xffff13c0
ffff1f34:	e3a03401 	mov	r3, #16777216	; 0x1000000
ffff1f38:	e59f00ac 	ldr	r0, [pc, #172]	; 0xffff1fec
ffff1f3c:	e5843010 	str	r3, [r4, #16]
ffff1f40:	e59f30a8 	ldr	r3, [pc, #168]	; 0xffff1ff0
ffff1f44:	e5931000 	ldr	r1, [r3]
ffff1f48:	e3510001 	cmp	r1, #1
ffff1f4c:	83a03611 	movhi	r3, #17825792	; 0x1100000
ffff1f50:	85843010 	strhi	r3, [r4, #16]
ffff1f54:	e3a03000 	mov	r3, #0
ffff1f58:	e3510001 	cmp	r1, #1
ffff1f5c:	e7cf301f 	bfc	r3, #0, #16
ffff1f60:	e7c0301f 	bfc	r3, #0, #1
ffff1f64:	e7c4319f 	bfc	r3, #3, #2
ffff1f68:	e7c5329f 	bfc	r3, #5, #1
ffff1f6c:	e3833002 	orr	r3, r3, #2
ffff1f70:	e7c9349f 	bfc	r3, #9, #1
ffff1f74:	e7c6331f 	bfc	r3, #6, #1
ffff1f78:	e3833004 	orr	r3, r3, #4
ffff1f7c:	e7cc361f 	bfc	r3, #12, #1
ffff1f80:	e7c7339f 	bfc	r3, #7, #1
ffff1f84:	e6ff2073 	uxth	r2, r3
ffff1f88:	e7cf301f 	bfc	r3, #0, #16
ffff1f8c:	e382c801 	orr	ip, r2, #65536	; 0x10000
ffff1f90:	83822811 	orrhi	r2, r2, #1114112	; 0x110000
ffff1f94:	e580c010 	str	ip, [r0, #16]
ffff1f98:	85802010 	strhi	r2, [r0, #16]
ffff1f9c:	e3a02002 	mov	r2, #2
ffff1fa0:	e3510001 	cmp	r1, #1
ffff1fa4:	e7ca3492 	bfi	r3, r2, #9, #2
ffff1fa8:	e3a02003 	mov	r2, #3
ffff1fac:	e7c7339f 	bfc	r3, #7, #1
ffff1fb0:	e7c6331f 	bfc	r3, #6, #1
ffff1fb4:	e7c53192 	bfi	r3, r2, #3, #3
ffff1fb8:	e59f202c 	ldr	r2, [pc, #44]	; 0xffff1fec
ffff1fbc:	e6ff3073 	uxth	r3, r3
ffff1fc0:	e3830802 	orr	r0, r3, #131072	; 0x20000
ffff1fc4:	83833812 	orrhi	r3, r3, #1179648	; 0x120000
ffff1fc8:	e5820010 	str	r0, [r2, #16]
ffff1fcc:	85823010 	strhi	r3, [r2, #16]
ffff1fd0:	e3a03302 	mov	r3, #134217728	; 0x8000000
ffff1fd4:	e3510001 	cmp	r1, #1
ffff1fd8:	e5823010 	str	r3, [r2, #16]
ffff1fdc:	859f3008 	ldrhi	r3, [pc, #8]	; 0xffff1fec
ffff1fe0:	83a02681 	movhi	r2, #135266304	; 0x8100000
ffff1fe4:	85832010 	strhi	r2, [r3, #16]
ffff1fe8:	e8bd8010 	pop	{r4, pc}
ffff1fec:	c00e0000 	andgt	r0, lr, r0
ffff1ff0:	ffff5474 			; <UNDEFINED> instruction: 0xffff5474
ffff1ff4:	e59f3050 	ldr	r3, [pc, #80]	; 0xffff204c
ffff1ff8:	e92d4037 	push	{r0, r1, r2, r4, r5, lr}
ffff1ffc:	e3a01000 	mov	r1, #0
ffff2000:	e59f0048 	ldr	r0, [pc, #72]	; 0xffff2050
ffff2004:	e3a02001 	mov	r2, #1
ffff2008:	e3a04000 	mov	r4, #0
ffff200c:	e593506c 	ldr	r5, [r3, #108]	; 0x6c
ffff2010:	e3a03003 	mov	r3, #3
ffff2014:	e58d3000 	str	r3, [sp]
ffff2018:	e3a03002 	mov	r3, #2
ffff201c:	ebfffe96 	bl	0xffff1a7c
ffff2020:	e1a01455 	asr	r1, r5, r4
ffff2024:	e59f0028 	ldr	r0, [pc, #40]	; 0xffff2054
ffff2028:	e2844008 	add	r4, r4, #8
ffff202c:	e6ef1071 	uxtb	r1, r1
ffff2030:	ebfffe91 	bl	0xffff1a7c
ffff2034:	e3540020 	cmp	r4, #32
ffff2038:	1afffff8 	bne	0xffff2020
ffff203c:	e59f0014 	ldr	r0, [pc, #20]	; 0xffff2058
ffff2040:	e28dd00c 	add	sp, sp, #12
ffff2044:	e8bd4030 	pop	{r4, r5, lr}
ffff2048:	eafffe8b 	b	0xffff1a7c
ffff204c:	c00e1000 	andgt	r1, lr, r0
ffff2050:	ffff4a28 			; <UNDEFINED> instruction: 0xffff4a28
ffff2054:	ffff4a49 			; <UNDEFINED> instruction: 0xffff4a49
ffff2058:	ffff48ad 			; <UNDEFINED> instruction: 0xffff48ad
ffff205c:	e92d4073 	push	{r0, r1, r4, r5, r6, lr}
ffff2060:	e3a05000 	mov	r5, #0
ffff2064:	e1a04005 	mov	r4, r5
ffff2068:	e59f0158 	ldr	r0, [pc, #344]	; 0xffff21c8
ffff206c:	e7cf4015 	bfi	r4, r5, #0, #16
ffff2070:	e58d5004 	str	r5, [sp, #4]
ffff2074:	e7c04015 	bfi	r4, r5, #0, #1
ffff2078:	e7c44195 	bfi	r4, r5, #3, #2
ffff207c:	e7c54295 	bfi	r4, r5, #5, #1
ffff2080:	ebfffe7d 	bl	0xffff1a7c
ffff2084:	e3844002 	orr	r4, r4, #2
ffff2088:	e59f213c 	ldr	r2, [pc, #316]	; 0xffff21cc
ffff208c:	e3a03401 	mov	r3, #16777216	; 0x1000000
ffff2090:	e7cc4615 	bfi	r4, r5, #12, #1
ffff2094:	e7c94495 	bfi	r4, r5, #9, #1
ffff2098:	e38440c4 	orr	r4, r4, #196	; 0xc4
ffff209c:	e5823010 	str	r3, [r2, #16]
ffff20a0:	e6ff3074 	uxth	r3, r4
ffff20a4:	e3833801 	orr	r3, r3, #65536	; 0x10000
ffff20a8:	e5823010 	str	r3, [r2, #16]
ffff20ac:	e59f311c 	ldr	r3, [pc, #284]	; 0xffff21d0
ffff20b0:	e5932068 	ldr	r2, [r3, #104]	; 0x68
ffff20b4:	e3822d06 	orr	r2, r2, #384	; 0x180
ffff20b8:	e5832068 	str	r2, [r3, #104]	; 0x68
ffff20bc:	e5932000 	ldr	r2, [r3]
ffff20c0:	e3822801 	orr	r2, r2, #65536	; 0x10000
ffff20c4:	e5832000 	str	r2, [r3]
ffff20c8:	e3a02801 	mov	r2, #65536	; 0x10000
ffff20cc:	e583200c 	str	r2, [r3, #12]
ffff20d0:	e58d5004 	str	r5, [sp, #4]
ffff20d4:	e1a05003 	mov	r5, r3
ffff20d8:	e59d3004 	ldr	r3, [sp, #4]
ffff20dc:	e3530063 	cmp	r3, #99	; 0x63
ffff20e0:	e59f30e8 	ldr	r3, [pc, #232]	; 0xffff21d0
ffff20e4:	8a00000a 	bhi	0xffff2114
ffff20e8:	e595200c 	ldr	r2, [r5, #12]
ffff20ec:	e3120401 	tst	r2, #16777216	; 0x1000000
ffff20f0:	1a000007 	bne	0xffff2114
ffff20f4:	e59f00d8 	ldr	r0, [pc, #216]	; 0xffff21d4
ffff20f8:	ebfffe5f 	bl	0xffff1a7c
ffff20fc:	e3a00064 	mov	r0, #100	; 0x64
ffff2100:	ebfffcae 	bl	0xffff13c0
ffff2104:	e59d3004 	ldr	r3, [sp, #4]
ffff2108:	e2833001 	add	r3, r3, #1
ffff210c:	e58d3004 	str	r3, [sp, #4]
ffff2110:	eafffff0 	b	0xffff20d8
ffff2114:	e593200c 	ldr	r2, [r3, #12]
ffff2118:	e3c22801 	bic	r2, r2, #65536	; 0x10000
ffff211c:	e583200c 	str	r2, [r3, #12]
ffff2120:	e5932000 	ldr	r2, [r3]
ffff2124:	e3c22801 	bic	r2, r2, #65536	; 0x10000
ffff2128:	e5832000 	str	r2, [r3]
ffff212c:	e59d3004 	ldr	r3, [sp, #4]
ffff2130:	e3530064 	cmp	r3, #100	; 0x64
ffff2134:	13a06000 	movne	r6, #0
ffff2138:	1a000002 	bne	0xffff2148
ffff213c:	e59f0094 	ldr	r0, [pc, #148]	; 0xffff21d8
ffff2140:	e3e06000 	mvn	r6, #0
ffff2144:	ebfffe4c 	bl	0xffff1a7c
ffff2148:	e59f5080 	ldr	r5, [pc, #128]	; 0xffff21d0
ffff214c:	e7c7439f 	bfc	r4, #7, #1
ffff2150:	e3a00c01 	mov	r0, #256	; 0x100
ffff2154:	e59f3080 	ldr	r3, [pc, #128]	; 0xffff21dc
ffff2158:	e6ff4074 	uxth	r4, r4
ffff215c:	e3844801 	orr	r4, r4, #65536	; 0x10000
ffff2160:	e595206c 	ldr	r2, [r5, #108]	; 0x6c
ffff2164:	e5832000 	str	r2, [r3]
ffff2168:	e5953068 	ldr	r3, [r5, #104]	; 0x68
ffff216c:	e3c33d06 	bic	r3, r3, #384	; 0x180
ffff2170:	e5853068 	str	r3, [r5, #104]	; 0x68
ffff2174:	e59f3050 	ldr	r3, [pc, #80]	; 0xffff21cc
ffff2178:	e5834010 	str	r4, [r3, #16]
ffff217c:	ebfffc8f 	bl	0xffff13c0
ffff2180:	e5953050 	ldr	r3, [r5, #80]	; 0x50
ffff2184:	e3833401 	orr	r3, r3, #16777216	; 0x1000000
ffff2188:	e5853050 	str	r3, [r5, #80]	; 0x50
ffff218c:	e5953050 	ldr	r3, [r5, #80]	; 0x50
ffff2190:	e3c33401 	bic	r3, r3, #16777216	; 0x1000000
ffff2194:	e5853050 	str	r3, [r5, #80]	; 0x50
ffff2198:	e595300c 	ldr	r3, [r5, #12]
ffff219c:	e3833001 	orr	r3, r3, #1
ffff21a0:	e585300c 	str	r3, [r5, #12]
ffff21a4:	ebffff92 	bl	0xffff1ff4
ffff21a8:	e595301c 	ldr	r3, [r5, #28]
ffff21ac:	e59f002c 	ldr	r0, [pc, #44]	; 0xffff21e0
ffff21b0:	e3833201 	orr	r3, r3, #268435456	; 0x10000000
ffff21b4:	e585301c 	str	r3, [r5, #28]
ffff21b8:	ebfffe2f 	bl	0xffff1a7c
ffff21bc:	e1a00006 	mov	r0, r6
ffff21c0:	e28dd008 	add	sp, sp, #8
ffff21c4:	e8bd8070 	pop	{r4, r5, r6, pc}
ffff21c8:	ffff4a4f 			; <UNDEFINED> instruction: 0xffff4a4f
ffff21cc:	c00e0000 	andgt	r0, lr, r0
ffff21d0:	c00e1000 	andgt	r1, lr, r0
ffff21d4:	ffff4a80 			; <UNDEFINED> instruction: 0xffff4a80
ffff21d8:	ffff4aa6 			; <UNDEFINED> instruction: 0xffff4aa6
ffff21dc:	ffff547c 			; <UNDEFINED> instruction: 0xffff547c
ffff21e0:	ffff4adc 			; <UNDEFINED> instruction: 0xffff4adc
ffff21e4:	e59f311c 	ldr	r3, [pc, #284]	; 0xffff2308
ffff21e8:	e92d4ff0 	push	{r4, r5, r6, r7, r8, r9, sl, fp, lr}
ffff21ec:	e24dd034 	sub	sp, sp, #52	; 0x34
ffff21f0:	e59350e0 	ldr	r5, [r3, #224]	; 0xe0
ffff21f4:	e59300f0 	ldr	r0, [r3, #240]	; 0xf0
ffff21f8:	e59f310c 	ldr	r3, [pc, #268]	; 0xffff230c
ffff21fc:	e5830000 	str	r0, [r3]
ffff2200:	e3a03000 	mov	r3, #0
ffff2204:	e1a02183 	lsl	r2, r3, #3
ffff2208:	e28d1010 	add	r1, sp, #16
ffff220c:	e1a02230 	lsr	r2, r0, r2
ffff2210:	e6ef2072 	uxtb	r2, r2
ffff2214:	e7812103 	str	r2, [r1, r3, lsl #2]
ffff2218:	e2833001 	add	r3, r3, #1
ffff221c:	e3530004 	cmp	r3, #4
ffff2220:	1afffff7 	bne	0xffff2204
ffff2224:	e59f30dc 	ldr	r3, [pc, #220]	; 0xffff2308
ffff2228:	e59300fc 	ldr	r0, [r3, #252]	; 0xfc
ffff222c:	e59f30dc 	ldr	r3, [pc, #220]	; 0xffff2310
ffff2230:	e5830000 	str	r0, [r3]
ffff2234:	e3a03000 	mov	r3, #0
ffff2238:	e0832083 	add	r2, r3, r3, lsl #1
ffff223c:	e28d1020 	add	r1, sp, #32
ffff2240:	e1a02230 	lsr	r2, r0, r2
ffff2244:	e2022007 	and	r2, r2, #7
ffff2248:	e7812103 	str	r2, [r1, r3, lsl #2]
ffff224c:	e2833001 	add	r3, r3, #1
ffff2250:	e3530004 	cmp	r3, #4
ffff2254:	1afffff7 	bne	0xffff2238
ffff2258:	e59f30a8 	ldr	r3, [pc, #168]	; 0xffff2308
ffff225c:	e59f00b0 	ldr	r0, [pc, #176]	; 0xffff2314
ffff2260:	e59340b4 	ldr	r4, [r3, #180]	; 0xb4
ffff2264:	ebfffe04 	bl	0xffff1a7c
ffff2268:	e59f30a8 	ldr	r3, [pc, #168]	; 0xffff2318
ffff226c:	e3550000 	cmp	r5, #0
ffff2270:	e59f10a4 	ldr	r1, [pc, #164]	; 0xffff231c
ffff2274:	e59f00a4 	ldr	r0, [pc, #164]	; 0xffff2320
ffff2278:	e7e84454 	ubfx	r4, r4, #8, #9
ffff227c:	01a01003 	moveq	r1, r3
ffff2280:	ebfffdfd 	bl	0xffff1a7c
ffff2284:	e59dc01c 	ldr	ip, [sp, #28]
ffff2288:	e59da010 	ldr	sl, [sp, #16]
ffff228c:	e59d8014 	ldr	r8, [sp, #20]
ffff2290:	e59d6018 	ldr	r6, [sp, #24]
ffff2294:	e58dc000 	str	ip, [sp]
ffff2298:	e59f0084 	ldr	r0, [pc, #132]	; 0xffff2324
ffff229c:	e1a0100a 	mov	r1, sl
ffff22a0:	e58dc00c 	str	ip, [sp, #12]
ffff22a4:	e1a02008 	mov	r2, r8
ffff22a8:	e1a03006 	mov	r3, r6
ffff22ac:	ebfffdf2 	bl	0xffff1a7c
ffff22b0:	e59db020 	ldr	fp, [sp, #32]
ffff22b4:	e59d9024 	ldr	r9, [sp, #36]	; 0x24
ffff22b8:	e59d7028 	ldr	r7, [sp, #40]	; 0x28
ffff22bc:	e59d502c 	ldr	r5, [sp, #44]	; 0x2c
ffff22c0:	e1a0100b 	mov	r1, fp
ffff22c4:	e59f005c 	ldr	r0, [pc, #92]	; 0xffff2328
ffff22c8:	e1a02009 	mov	r2, r9
ffff22cc:	e1a03007 	mov	r3, r7
ffff22d0:	e58d5000 	str	r5, [sp]
ffff22d4:	ebfffde8 	bl	0xffff1a7c
ffff22d8:	e59dc00c 	ldr	ip, [sp, #12]
ffff22dc:	e021a49b 	mla	r1, fp, r4, sl
ffff22e0:	e0228499 	mla	r2, r9, r4, r8
ffff22e4:	e59f0040 	ldr	r0, [pc, #64]	; 0xffff232c
ffff22e8:	e0236497 	mla	r3, r7, r4, r6
ffff22ec:	e025c495 	mla	r5, r5, r4, ip
ffff22f0:	e58d5000 	str	r5, [sp]
ffff22f4:	ebfffde0 	bl	0xffff1a7c
ffff22f8:	e59f0030 	ldr	r0, [pc, #48]	; 0xffff2330
ffff22fc:	e28dd034 	add	sp, sp, #52	; 0x34
ffff2300:	e8bd4ff0 	pop	{r4, r5, r6, r7, r8, r9, sl, fp, lr}
ffff2304:	eafffddc 	b	0xffff1a7c
ffff2308:	c00e1000 	andgt	r1, lr, r0
ffff230c:	ffff5478 			; <UNDEFINED> instruction: 0xffff5478
ffff2310:	ffff5484 			; <UNDEFINED> instruction: 0xffff5484
ffff2314:	ffff4b0b 			; <UNDEFINED> instruction: 0xffff4b0b
ffff2318:	ffff498e 			; <UNDEFINED> instruction: 0xffff498e
ffff231c:	ffff4987 			; <UNDEFINED> instruction: 0xffff4987
ffff2320:	ffff4b3b 			; <UNDEFINED> instruction: 0xffff4b3b
ffff2324:	ffff4b51 			; <UNDEFINED> instruction: 0xffff4b51
ffff2328:	ffff4b7d 			; <UNDEFINED> instruction: 0xffff4b7d
ffff232c:	ffff4ba5 			; <UNDEFINED> instruction: 0xffff4ba5
ffff2330:	ffff4bcd 			; <UNDEFINED> instruction: 0xffff4bcd
ffff2334:	e3a03000 	mov	r3, #0
ffff2338:	e92d4037 	push	{r0, r1, r2, r4, r5, lr}
ffff233c:	e59f0138 	ldr	r0, [pc, #312]	; 0xffff247c
ffff2340:	e58d3000 	str	r3, [sp]
ffff2344:	ebfffdcc 	bl	0xffff1a7c
ffff2348:	e59f2130 	ldr	r2, [pc, #304]	; 0xffff2480
ffff234c:	e3a03401 	mov	r3, #16777216	; 0x1000000
ffff2350:	e5823010 	str	r3, [r2, #16]
ffff2354:	e59f3128 	ldr	r3, [pc, #296]	; 0xffff2484
ffff2358:	e5933000 	ldr	r3, [r3]
ffff235c:	e3530001 	cmp	r3, #1
ffff2360:	83a03611 	movhi	r3, #17825792	; 0x1100000
ffff2364:	85823010 	strhi	r3, [r2, #16]
ffff2368:	e3a03000 	mov	r3, #0
ffff236c:	e7cf301f 	bfc	r3, #0, #16
ffff2370:	e3833004 	orr	r3, r3, #4
ffff2374:	e6ff3073 	uxth	r3, r3
ffff2378:	e3833803 	orr	r3, r3, #196608	; 0x30000
ffff237c:	e5823010 	str	r3, [r2, #16]
ffff2380:	e59f3100 	ldr	r3, [pc, #256]	; 0xffff2488
ffff2384:	e5932008 	ldr	r2, [r3, #8]
ffff2388:	e1a04003 	mov	r4, r3
ffff238c:	e3822401 	orr	r2, r2, #16777216	; 0x1000000
ffff2390:	e5832008 	str	r2, [r3, #8]
ffff2394:	e5932000 	ldr	r2, [r3]
ffff2398:	e3822d05 	orr	r2, r2, #320	; 0x140
ffff239c:	e5832000 	str	r2, [r3]
ffff23a0:	e5932004 	ldr	r2, [r3, #4]
ffff23a4:	e3c2260f 	bic	r2, r2, #15728640	; 0xf00000
ffff23a8:	e5832004 	str	r2, [r3, #4]
ffff23ac:	e3a02701 	mov	r2, #262144	; 0x40000
ffff23b0:	e583200c 	str	r2, [r3, #12]
ffff23b4:	e3a02000 	mov	r2, #0
ffff23b8:	e58d2000 	str	r2, [sp]
ffff23bc:	e59d3000 	ldr	r3, [sp]
ffff23c0:	e59f10c0 	ldr	r1, [pc, #192]	; 0xffff2488
ffff23c4:	e3530063 	cmp	r3, #99	; 0x63
ffff23c8:	ca000004 	bgt	0xffff23e0
ffff23cc:	e594300c 	ldr	r3, [r4, #12]
ffff23d0:	e58d3004 	str	r3, [sp, #4]
ffff23d4:	e59d3004 	ldr	r3, [sp, #4]
ffff23d8:	e3130301 	tst	r3, #67108864	; 0x4000000
ffff23dc:	0a00000b 	beq	0xffff2410
ffff23e0:	e591300c 	ldr	r3, [r1, #12]
ffff23e4:	e59f209c 	ldr	r2, [pc, #156]	; 0xffff2488
ffff23e8:	e59f509c 	ldr	r5, [pc, #156]	; 0xffff248c
ffff23ec:	e3c33701 	bic	r3, r3, #262144	; 0x40000
ffff23f0:	e581300c 	str	r3, [r1, #12]
ffff23f4:	e59d3000 	ldr	r3, [sp]
ffff23f8:	e3530064 	cmp	r3, #100	; 0x64
ffff23fc:	1a000009 	bne	0xffff2428
ffff2400:	e59f0088 	ldr	r0, [pc, #136]	; 0xffff2490
ffff2404:	e3e04000 	mvn	r4, #0
ffff2408:	ebfffd9b 	bl	0xffff1a7c
ffff240c:	ea00000c 	b	0xffff2444
ffff2410:	e3a00064 	mov	r0, #100	; 0x64
ffff2414:	ebfffbe9 	bl	0xffff13c0
ffff2418:	e59d3000 	ldr	r3, [sp]
ffff241c:	e2833001 	add	r3, r3, #1
ffff2420:	e58d3000 	str	r3, [sp]
ffff2424:	eaffffe4 	b	0xffff23bc
ffff2428:	e59230f0 	ldr	r3, [r2, #240]	; 0xf0
ffff242c:	e3a04000 	mov	r4, #0
ffff2430:	e5853000 	str	r3, [r5]
ffff2434:	e59f3058 	ldr	r3, [pc, #88]	; 0xffff2494
ffff2438:	e59220fc 	ldr	r2, [r2, #252]	; 0xfc
ffff243c:	e5832000 	str	r2, [r3]
ffff2440:	ebffff67 	bl	0xffff21e4
ffff2444:	e59f303c 	ldr	r3, [pc, #60]	; 0xffff2488
ffff2448:	e3a02000 	mov	r2, #0
ffff244c:	e59f0044 	ldr	r0, [pc, #68]	; 0xffff2498
ffff2450:	e5832018 	str	r2, [r3, #24]
ffff2454:	e3a02803 	mov	r2, #196608	; 0x30000
ffff2458:	e5032ff0 	str	r2, [r3, #-4080]	; 0xfffff010
ffff245c:	ebfffd86 	bl	0xffff1a7c
ffff2460:	e5952000 	ldr	r2, [r5]
ffff2464:	e59f3030 	ldr	r3, [pc, #48]	; 0xffff249c
ffff2468:	e1520003 	cmp	r2, r3
ffff246c:	11a00004 	movne	r0, r4
ffff2470:	03e00000 	mvneq	r0, #0
ffff2474:	e28dd00c 	add	sp, sp, #12
ffff2478:	e8bd8030 	pop	{r4, r5, pc}
ffff247c:	ffff4bfb 			; <UNDEFINED> instruction: 0xffff4bfb
ffff2480:	c00e0000 	andgt	r0, lr, r0
ffff2484:	ffff5474 			; <UNDEFINED> instruction: 0xffff5474
ffff2488:	c00e1000 	andgt	r1, lr, r0
ffff248c:	ffff5478 			; <UNDEFINED> instruction: 0xffff5478
ffff2490:	ffff4c2b 			; <UNDEFINED> instruction: 0xffff4c2b
ffff2494:	ffff5484 			; <UNDEFINED> instruction: 0xffff5484
ffff2498:	ffff4c5f 			; <UNDEFINED> instruction: 0xffff4c5f
ffff249c:	08080808 	stmdaeq	r8, {r3, fp}
ffff24a0:	e59f2130 	ldr	r2, [pc, #304]	; 0xffff25d8
ffff24a4:	e3a03000 	mov	r3, #0
ffff24a8:	e92d4010 	push	{r4, lr}
ffff24ac:	e24dd038 	sub	sp, sp, #56	; 0x38
ffff24b0:	e59240e0 	ldr	r4, [r2, #224]	; 0xe0
ffff24b4:	e1a04334 	lsr	r4, r4, r3
ffff24b8:	e204400f 	and	r4, r4, #15
ffff24bc:	e3540001 	cmp	r4, #1
ffff24c0:	0a000025 	beq	0xffff255c
ffff24c4:	e2833008 	add	r3, r3, #8
ffff24c8:	e3530020 	cmp	r3, #32
ffff24cc:	1afffff7 	bne	0xffff24b0
ffff24d0:	e3540000 	cmp	r4, #0
ffff24d4:	1a000020 	bne	0xffff255c
ffff24d8:	e59f30f8 	ldr	r3, [pc, #248]	; 0xffff25d8
ffff24dc:	e5930110 	ldr	r0, [r3, #272]	; 0x110
ffff24e0:	e1a03004 	mov	r3, r4
ffff24e4:	e1a02183 	lsl	r2, r3, #3
ffff24e8:	e28d1008 	add	r1, sp, #8
ffff24ec:	e1a02230 	lsr	r2, r0, r2
ffff24f0:	e6ef2072 	uxtb	r2, r2
ffff24f4:	e7812103 	str	r2, [r1, r3, lsl #2]
ffff24f8:	e2833001 	add	r3, r3, #1
ffff24fc:	e3530004 	cmp	r3, #4
ffff2500:	1afffff7 	bne	0xffff24e4
ffff2504:	e59f30cc 	ldr	r3, [pc, #204]	; 0xffff25d8
ffff2508:	e5930120 	ldr	r0, [r3, #288]	; 0x120
ffff250c:	e3a03000 	mov	r3, #0
ffff2510:	e1a02183 	lsl	r2, r3, #3
ffff2514:	e28d1018 	add	r1, sp, #24
ffff2518:	e1a02230 	lsr	r2, r0, r2
ffff251c:	e6ef2072 	uxtb	r2, r2
ffff2520:	e7812103 	str	r2, [r1, r3, lsl #2]
ffff2524:	e2833001 	add	r3, r3, #1
ffff2528:	e3530004 	cmp	r3, #4
ffff252c:	1afffff7 	bne	0xffff2510
ffff2530:	e59f30a0 	ldr	r3, [pc, #160]	; 0xffff25d8
ffff2534:	e5930100 	ldr	r0, [r3, #256]	; 0x100
ffff2538:	e3a03000 	mov	r3, #0
ffff253c:	e1a02183 	lsl	r2, r3, #3
ffff2540:	e28d1028 	add	r1, sp, #40	; 0x28
ffff2544:	e1a02230 	lsr	r2, r0, r2
ffff2548:	e6ef2072 	uxtb	r2, r2
ffff254c:	e7812103 	str	r2, [r1, r3, lsl #2]
ffff2550:	e2833001 	add	r3, r3, #1
ffff2554:	e3530004 	cmp	r3, #4
ffff2558:	1afffff7 	bne	0xffff253c
ffff255c:	e59f0078 	ldr	r0, [pc, #120]	; 0xffff25dc
ffff2560:	ebfffd45 	bl	0xffff1a7c
ffff2564:	e59f3074 	ldr	r3, [pc, #116]	; 0xffff25e0
ffff2568:	e3540000 	cmp	r4, #0
ffff256c:	e59f1070 	ldr	r1, [pc, #112]	; 0xffff25e4
ffff2570:	e59f0070 	ldr	r0, [pc, #112]	; 0xffff25e8
ffff2574:	11a01003 	movne	r1, r3
ffff2578:	ebfffd3f 	bl	0xffff1a7c
ffff257c:	e3540000 	cmp	r4, #0
ffff2580:	1a000012 	bne	0xffff25d0
ffff2584:	e28d3018 	add	r3, sp, #24
ffff2588:	e28d2008 	add	r2, sp, #8
ffff258c:	e59f0058 	ldr	r0, [pc, #88]	; 0xffff25ec
ffff2590:	e7933104 	ldr	r3, [r3, r4, lsl #2]
ffff2594:	e1a01004 	mov	r1, r4
ffff2598:	e7922104 	ldr	r2, [r2, r4, lsl #2]
ffff259c:	e58d3000 	str	r3, [sp]
ffff25a0:	e0623003 	rsb	r3, r2, r3
ffff25a4:	e58d3004 	str	r3, [sp, #4]
ffff25a8:	e28d3028 	add	r3, sp, #40	; 0x28
ffff25ac:	e7933104 	ldr	r3, [r3, r4, lsl #2]
ffff25b0:	e2844001 	add	r4, r4, #1
ffff25b4:	ebfffd30 	bl	0xffff1a7c
ffff25b8:	e3540004 	cmp	r4, #4
ffff25bc:	1afffff0 	bne	0xffff2584
ffff25c0:	e59f0028 	ldr	r0, [pc, #40]	; 0xffff25f0
ffff25c4:	e28dd038 	add	sp, sp, #56	; 0x38
ffff25c8:	e8bd4010 	pop	{r4, lr}
ffff25cc:	eafffd2a 	b	0xffff1a7c
ffff25d0:	e28dd038 	add	sp, sp, #56	; 0x38
ffff25d4:	e8bd8010 	pop	{r4, pc}
ffff25d8:	c00e1000 	andgt	r1, lr, r0
ffff25dc:	ffff4c8d 			; <UNDEFINED> instruction: 0xffff4c8d
ffff25e0:	ffff4987 			; <UNDEFINED> instruction: 0xffff4987
ffff25e4:	ffff498e 			; <UNDEFINED> instruction: 0xffff498e
ffff25e8:	ffff4cbd 			; <UNDEFINED> instruction: 0xffff4cbd
ffff25ec:	ffff4cd9 			; <UNDEFINED> instruction: 0xffff4cd9
ffff25f0:	ffff4bcd 			; <UNDEFINED> instruction: 0xffff4bcd
ffff25f4:	e92d401f 	push	{r0, r1, r2, r3, r4, lr}
ffff25f8:	e3a03000 	mov	r3, #0
ffff25fc:	e59f011c 	ldr	r0, [pc, #284]	; 0xffff2720
ffff2600:	e58d3004 	str	r3, [sp, #4]
ffff2604:	ebfffd1c 	bl	0xffff1a7c
ffff2608:	e59f2114 	ldr	r2, [pc, #276]	; 0xffff2724
ffff260c:	e3a03401 	mov	r3, #16777216	; 0x1000000
ffff2610:	e5823010 	str	r3, [r2, #16]
ffff2614:	e59f310c 	ldr	r3, [pc, #268]	; 0xffff2728
ffff2618:	e5933000 	ldr	r3, [r3]
ffff261c:	e3530001 	cmp	r3, #1
ffff2620:	83a03611 	movhi	r3, #17825792	; 0x1100000
ffff2624:	85823010 	strhi	r3, [r2, #16]
ffff2628:	e3a03000 	mov	r3, #0
ffff262c:	e7cf301f 	bfc	r3, #0, #16
ffff2630:	e3833004 	orr	r3, r3, #4
ffff2634:	e6ff3073 	uxth	r3, r3
ffff2638:	e3833803 	orr	r3, r3, #196608	; 0x30000
ffff263c:	e5823010 	str	r3, [r2, #16]
ffff2640:	e59f30e4 	ldr	r3, [pc, #228]	; 0xffff272c
ffff2644:	e5932008 	ldr	r2, [r3, #8]
ffff2648:	e1a04003 	mov	r4, r3
ffff264c:	e3822402 	orr	r2, r2, #33554432	; 0x2000000
ffff2650:	e5832008 	str	r2, [r3, #8]
ffff2654:	e3a02702 	mov	r2, #524288	; 0x80000
ffff2658:	e583200c 	str	r2, [r3, #12]
ffff265c:	e3a02000 	mov	r2, #0
ffff2660:	e58d2004 	str	r2, [sp, #4]
ffff2664:	e59d3004 	ldr	r3, [sp, #4]
ffff2668:	e59f10bc 	ldr	r1, [pc, #188]	; 0xffff272c
ffff266c:	e3530063 	cmp	r3, #99	; 0x63
ffff2670:	ca000004 	bgt	0xffff2688
ffff2674:	e594300c 	ldr	r3, [r4, #12]
ffff2678:	e58d300c 	str	r3, [sp, #12]
ffff267c:	e59d300c 	ldr	r3, [sp, #12]
ffff2680:	e3130301 	tst	r3, #67108864	; 0x4000000
ffff2684:	0a000009 	beq	0xffff26b0
ffff2688:	e591300c 	ldr	r3, [r1, #12]
ffff268c:	e59f2098 	ldr	r2, [pc, #152]	; 0xffff272c
ffff2690:	e3c33702 	bic	r3, r3, #524288	; 0x80000
ffff2694:	e581300c 	str	r3, [r1, #12]
ffff2698:	e59d3004 	ldr	r3, [sp, #4]
ffff269c:	e3530064 	cmp	r3, #100	; 0x64
ffff26a0:	1a000008 	bne	0xffff26c8
ffff26a4:	e59f0084 	ldr	r0, [pc, #132]	; 0xffff2730
ffff26a8:	ebfffcf3 	bl	0xffff1a7c
ffff26ac:	ea00000d 	b	0xffff26e8
ffff26b0:	e3a00064 	mov	r0, #100	; 0x64
ffff26b4:	ebfffb41 	bl	0xffff13c0
ffff26b8:	e59d3004 	ldr	r3, [sp, #4]
ffff26bc:	e2833001 	add	r3, r3, #1
ffff26c0:	e58d3004 	str	r3, [sp, #4]
ffff26c4:	eaffffe6 	b	0xffff2664
ffff26c8:	e59230e0 	ldr	r3, [r2, #224]	; 0xe0
ffff26cc:	e58d3008 	str	r3, [sp, #8]
ffff26d0:	e59d4008 	ldr	r4, [sp, #8]
ffff26d4:	e3540000 	cmp	r4, #0
ffff26d8:	0a000004 	beq	0xffff26f0
ffff26dc:	e59d1008 	ldr	r1, [sp, #8]
ffff26e0:	e59f004c 	ldr	r0, [pc, #76]	; 0xffff2734
ffff26e4:	ebfffce4 	bl	0xffff1a7c
ffff26e8:	e3e04000 	mvn	r4, #0
ffff26ec:	ea000002 	b	0xffff26fc
ffff26f0:	e5922100 	ldr	r2, [r2, #256]	; 0x100
ffff26f4:	e59f303c 	ldr	r3, [pc, #60]	; 0xffff2738
ffff26f8:	e5832000 	str	r2, [r3]
ffff26fc:	e59f3020 	ldr	r3, [pc, #32]	; 0xffff2724
ffff2700:	e3a02803 	mov	r2, #196608	; 0x30000
ffff2704:	e5832010 	str	r2, [r3, #16]
ffff2708:	ebffff64 	bl	0xffff24a0
ffff270c:	e59f0028 	ldr	r0, [pc, #40]	; 0xffff273c
ffff2710:	ebfffcd9 	bl	0xffff1a7c
ffff2714:	e1a00004 	mov	r0, r4
ffff2718:	e28dd010 	add	sp, sp, #16
ffff271c:	e8bd8010 	pop	{r4, pc}
ffff2720:	ffff4d06 			; <UNDEFINED> instruction: 0xffff4d06
ffff2724:	c00e0000 	andgt	r0, lr, r0
ffff2728:	ffff5474 			; <UNDEFINED> instruction: 0xffff5474
ffff272c:	c00e1000 	andgt	r1, lr, r0
ffff2730:	ffff4d3c 			; <UNDEFINED> instruction: 0xffff4d3c
ffff2734:	ffff4d5e 			; <UNDEFINED> instruction: 0xffff4d5e
ffff2738:	ffff5470 			; <UNDEFINED> instruction: 0xffff5470
ffff273c:	ffff4d84 			; <UNDEFINED> instruction: 0xffff4d84
ffff2740:	e59f3064 	ldr	r3, [pc, #100]	; 0xffff27ac
ffff2744:	e92d4070 	push	{r4, r5, r6, lr}
ffff2748:	e59350dc 	ldr	r5, [r3, #220]	; 0xdc
ffff274c:	e215500f 	ands	r5, r5, #15
ffff2750:	1a000001 	bne	0xffff275c
ffff2754:	e59f1054 	ldr	r1, [pc, #84]	; 0xffff27b0
ffff2758:	ea00000f 	b	0xffff279c
ffff275c:	e5936014 	ldr	r6, [r3, #20]
ffff2760:	e3a04000 	mov	r4, #0
ffff2764:	e2066007 	and	r6, r6, #7
ffff2768:	e0842084 	add	r2, r4, r4, lsl #1
ffff276c:	e1a01004 	mov	r1, r4
ffff2770:	e59f003c 	ldr	r0, [pc, #60]	; 0xffff27b4
ffff2774:	e2844001 	add	r4, r4, #1
ffff2778:	e1a02236 	lsr	r2, r6, r2
ffff277c:	ebfffcbe 	bl	0xffff1a7c
ffff2780:	e3540004 	cmp	r4, #4
ffff2784:	1afffff7 	bne	0xffff2768
ffff2788:	e59f0028 	ldr	r0, [pc, #40]	; 0xffff27b8
ffff278c:	ebfffcba 	bl	0xffff1a7c
ffff2790:	e355000f 	cmp	r5, #15
ffff2794:	1affffee 	bne	0xffff2754
ffff2798:	e59f101c 	ldr	r1, [pc, #28]	; 0xffff27bc
ffff279c:	e1a02005 	mov	r2, r5
ffff27a0:	e59f0018 	ldr	r0, [pc, #24]	; 0xffff27c0
ffff27a4:	e8bd4070 	pop	{r4, r5, r6, lr}
ffff27a8:	eafffcb3 	b	0xffff1a7c
ffff27ac:	c00e1000 	andgt	r1, lr, r0
ffff27b0:	ffff4987 			; <UNDEFINED> instruction: 0xffff4987
ffff27b4:	ffff4db8 			; <UNDEFINED> instruction: 0xffff4db8
ffff27b8:	ffff4ddf 			; <UNDEFINED> instruction: 0xffff4ddf
ffff27bc:	ffff498e 			; <UNDEFINED> instruction: 0xffff498e
ffff27c0:	ffff4e0c 			; <UNDEFINED> instruction: 0xffff4e0c
ffff27c4:	e92d4030 	push	{r4, r5, lr}
ffff27c8:	e3a04000 	mov	r4, #0
ffff27cc:	e24dd01c 	sub	sp, sp, #28
ffff27d0:	e59f0124 	ldr	r0, [pc, #292]	; 0xffff28fc
ffff27d4:	e58d4004 	str	r4, [sp, #4]
ffff27d8:	e58d4008 	str	r4, [sp, #8]
ffff27dc:	e58d4014 	str	r4, [sp, #20]
ffff27e0:	ebfffca5 	bl	0xffff1a7c
ffff27e4:	e59d3004 	ldr	r3, [sp, #4]
ffff27e8:	e59f2110 	ldr	r2, [pc, #272]	; 0xffff2900
ffff27ec:	e1a03803 	lsl	r3, r3, #16
ffff27f0:	e3833001 	orr	r3, r3, #1
ffff27f4:	e58230f4 	str	r3, [r2, #244]	; 0xf4
ffff27f8:	e59230f4 	ldr	r3, [r2, #244]	; 0xf4
ffff27fc:	e3c33001 	bic	r3, r3, #1
ffff2800:	e58230f4 	str	r3, [r2, #244]	; 0xf4
ffff2804:	e59f30f8 	ldr	r3, [pc, #248]	; 0xffff2904
ffff2808:	e59d1008 	ldr	r1, [sp, #8]
ffff280c:	e5932060 	ldr	r2, [r3, #96]	; 0x60
ffff2810:	e1822081 	orr	r2, r2, r1, lsl #1
ffff2814:	e5832060 	str	r2, [r3, #96]	; 0x60
ffff2818:	e593200c 	ldr	r2, [r3, #12]
ffff281c:	e3822601 	orr	r2, r2, #1048576	; 0x100000
ffff2820:	e583200c 	str	r2, [r3, #12]
ffff2824:	e593200c 	ldr	r2, [r3, #12]
ffff2828:	e3822602 	orr	r2, r2, #2097152	; 0x200000
ffff282c:	e583200c 	str	r2, [r3, #12]
ffff2830:	e58d400c 	str	r4, [sp, #12]
ffff2834:	e1a04003 	mov	r4, r3
ffff2838:	e59d300c 	ldr	r3, [sp, #12]
ffff283c:	e59f20c0 	ldr	r2, [pc, #192]	; 0xffff2904
ffff2840:	e3530063 	cmp	r3, #99	; 0x63
ffff2844:	ca000004 	bgt	0xffff285c
ffff2848:	e594300c 	ldr	r3, [r4, #12]
ffff284c:	e58d3010 	str	r3, [sp, #16]
ffff2850:	e59d3010 	ldr	r3, [sp, #16]
ffff2854:	e3130302 	tst	r3, #134217728	; 0x8000000
ffff2858:	0a00000a 	beq	0xffff2888
ffff285c:	e592300c 	ldr	r3, [r2, #12]
ffff2860:	e3c33602 	bic	r3, r3, #2097152	; 0x200000
ffff2864:	e582300c 	str	r3, [r2, #12]
ffff2868:	e59d300c 	ldr	r3, [sp, #12]
ffff286c:	e3530064 	cmp	r3, #100	; 0x64
ffff2870:	13a05000 	movne	r5, #0
ffff2874:	1a000009 	bne	0xffff28a0
ffff2878:	e59f0088 	ldr	r0, [pc, #136]	; 0xffff2908
ffff287c:	e3e05000 	mvn	r5, #0
ffff2880:	ebfffc7d 	bl	0xffff1a7c
ffff2884:	ea000005 	b	0xffff28a0
ffff2888:	e3a00c01 	mov	r0, #256	; 0x100
ffff288c:	ebfffacb 	bl	0xffff13c0
ffff2890:	e59d300c 	ldr	r3, [sp, #12]
ffff2894:	e2833001 	add	r3, r3, #1
ffff2898:	e58d300c 	str	r3, [sp, #12]
ffff289c:	eaffffe5 	b	0xffff2838
ffff28a0:	e59f405c 	ldr	r4, [pc, #92]	; 0xffff2904
ffff28a4:	e594300c 	ldr	r3, [r4, #12]
ffff28a8:	e3833001 	orr	r3, r3, #1
ffff28ac:	e584300c 	str	r3, [r4, #12]
ffff28b0:	ebffffa2 	bl	0xffff2740
ffff28b4:	e594300c 	ldr	r3, [r4, #12]
ffff28b8:	e3c330ff 	bic	r3, r3, #255	; 0xff
ffff28bc:	e584300c 	str	r3, [r4, #12]
ffff28c0:	e59430dc 	ldr	r3, [r4, #220]	; 0xdc
ffff28c4:	e203300f 	and	r3, r3, #15
ffff28c8:	e58d3014 	str	r3, [sp, #20]
ffff28cc:	e59d3014 	ldr	r3, [sp, #20]
ffff28d0:	e353000f 	cmp	r3, #15
ffff28d4:	0a000003 	beq	0xffff28e8
ffff28d8:	e59d1014 	ldr	r1, [sp, #20]
ffff28dc:	e3e05000 	mvn	r5, #0
ffff28e0:	e59f0024 	ldr	r0, [pc, #36]	; 0xffff290c
ffff28e4:	ebfffc64 	bl	0xffff1a7c
ffff28e8:	e59f0020 	ldr	r0, [pc, #32]	; 0xffff2910
ffff28ec:	ebfffc62 	bl	0xffff1a7c
ffff28f0:	e1a00005 	mov	r0, r5
ffff28f4:	e28dd01c 	add	sp, sp, #28
ffff28f8:	e8bd8030 	pop	{r4, r5, pc}
ffff28fc:	ffff4e3a 			; <UNDEFINED> instruction: 0xffff4e3a
ffff2900:	c00e0000 	andgt	r0, lr, r0
ffff2904:	c00e1000 	andgt	r1, lr, r0
ffff2908:	ffff4e76 			; <UNDEFINED> instruction: 0xffff4e76
ffff290c:	ffff4e9d 			; <UNDEFINED> instruction: 0xffff4e9d
ffff2910:	ffff4ed4 			; <UNDEFINED> instruction: 0xffff4ed4
ffff2914:	e59f2130 	ldr	r2, [pc, #304]	; 0xffff2a4c
ffff2918:	e3a03000 	mov	r3, #0
ffff291c:	e92d4010 	push	{r4, lr}
ffff2920:	e24dd038 	sub	sp, sp, #56	; 0x38
ffff2924:	e59240e0 	ldr	r4, [r2, #224]	; 0xe0
ffff2928:	e1a04334 	lsr	r4, r4, r3
ffff292c:	e204400f 	and	r4, r4, #15
ffff2930:	e3540001 	cmp	r4, #1
ffff2934:	0a000025 	beq	0xffff29d0
ffff2938:	e2833008 	add	r3, r3, #8
ffff293c:	e3530020 	cmp	r3, #32
ffff2940:	1afffff7 	bne	0xffff2924
ffff2944:	e3540000 	cmp	r4, #0
ffff2948:	1a000020 	bne	0xffff29d0
ffff294c:	e59f30f8 	ldr	r3, [pc, #248]	; 0xffff2a4c
ffff2950:	e5930140 	ldr	r0, [r3, #320]	; 0x140
ffff2954:	e1a03004 	mov	r3, r4
ffff2958:	e1a02183 	lsl	r2, r3, #3
ffff295c:	e28d1008 	add	r1, sp, #8
ffff2960:	e1a02230 	lsr	r2, r0, r2
ffff2964:	e6ef2072 	uxtb	r2, r2
ffff2968:	e7812103 	str	r2, [r1, r3, lsl #2]
ffff296c:	e2833001 	add	r3, r3, #1
ffff2970:	e3530004 	cmp	r3, #4
ffff2974:	1afffff7 	bne	0xffff2958
ffff2978:	e59f30cc 	ldr	r3, [pc, #204]	; 0xffff2a4c
ffff297c:	e5930150 	ldr	r0, [r3, #336]	; 0x150
ffff2980:	e3a03000 	mov	r3, #0
ffff2984:	e1a02183 	lsl	r2, r3, #3
ffff2988:	e28d1018 	add	r1, sp, #24
ffff298c:	e1a02230 	lsr	r2, r0, r2
ffff2990:	e6ef2072 	uxtb	r2, r2
ffff2994:	e7812103 	str	r2, [r1, r3, lsl #2]
ffff2998:	e2833001 	add	r3, r3, #1
ffff299c:	e3530004 	cmp	r3, #4
ffff29a0:	1afffff7 	bne	0xffff2984
ffff29a4:	e59f30a0 	ldr	r3, [pc, #160]	; 0xffff2a4c
ffff29a8:	e5930130 	ldr	r0, [r3, #304]	; 0x130
ffff29ac:	e3a03000 	mov	r3, #0
ffff29b0:	e1a02183 	lsl	r2, r3, #3
ffff29b4:	e28d1028 	add	r1, sp, #40	; 0x28
ffff29b8:	e1a02230 	lsr	r2, r0, r2
ffff29bc:	e6ef2072 	uxtb	r2, r2
ffff29c0:	e7812103 	str	r2, [r1, r3, lsl #2]
ffff29c4:	e2833001 	add	r3, r3, #1
ffff29c8:	e3530004 	cmp	r3, #4
ffff29cc:	1afffff7 	bne	0xffff29b0
ffff29d0:	e59f0078 	ldr	r0, [pc, #120]	; 0xffff2a50
ffff29d4:	ebfffc28 	bl	0xffff1a7c
ffff29d8:	e59f3074 	ldr	r3, [pc, #116]	; 0xffff2a54
ffff29dc:	e3540000 	cmp	r4, #0
ffff29e0:	e59f1070 	ldr	r1, [pc, #112]	; 0xffff2a58
ffff29e4:	e59f0070 	ldr	r0, [pc, #112]	; 0xffff2a5c
ffff29e8:	11a01003 	movne	r1, r3
ffff29ec:	ebfffc22 	bl	0xffff1a7c
ffff29f0:	e3540000 	cmp	r4, #0
ffff29f4:	1a000012 	bne	0xffff2a44
ffff29f8:	e28d3018 	add	r3, sp, #24
ffff29fc:	e28d2008 	add	r2, sp, #8
ffff2a00:	e59f0058 	ldr	r0, [pc, #88]	; 0xffff2a60
ffff2a04:	e7933104 	ldr	r3, [r3, r4, lsl #2]
ffff2a08:	e1a01004 	mov	r1, r4
ffff2a0c:	e7922104 	ldr	r2, [r2, r4, lsl #2]
ffff2a10:	e58d3000 	str	r3, [sp]
ffff2a14:	e0623003 	rsb	r3, r2, r3
ffff2a18:	e58d3004 	str	r3, [sp, #4]
ffff2a1c:	e28d3028 	add	r3, sp, #40	; 0x28
ffff2a20:	e7933104 	ldr	r3, [r3, r4, lsl #2]
ffff2a24:	e2844001 	add	r4, r4, #1
ffff2a28:	ebfffc13 	bl	0xffff1a7c
ffff2a2c:	e3540004 	cmp	r4, #4
ffff2a30:	1afffff0 	bne	0xffff29f8
ffff2a34:	e59f0028 	ldr	r0, [pc, #40]	; 0xffff2a64
ffff2a38:	e28dd038 	add	sp, sp, #56	; 0x38
ffff2a3c:	e8bd4010 	pop	{r4, lr}
ffff2a40:	eafffc0d 	b	0xffff1a7c
ffff2a44:	e28dd038 	add	sp, sp, #56	; 0x38
ffff2a48:	e8bd8010 	pop	{r4, pc}
ffff2a4c:	c00e1000 	andgt	r1, lr, r0
ffff2a50:	ffff4f0e 			; <UNDEFINED> instruction: 0xffff4f0e
ffff2a54:	ffff4987 			; <UNDEFINED> instruction: 0xffff4987
ffff2a58:	ffff498e 			; <UNDEFINED> instruction: 0xffff498e
ffff2a5c:	ffff4f3e 			; <UNDEFINED> instruction: 0xffff4f3e
ffff2a60:	ffff4f5b 			; <UNDEFINED> instruction: 0xffff4f5b
ffff2a64:	ffff4bcd 			; <UNDEFINED> instruction: 0xffff4bcd
ffff2a68:	e92d4010 	push	{r4, lr}
ffff2a6c:	e3a03000 	mov	r3, #0
ffff2a70:	e24dd018 	sub	sp, sp, #24
ffff2a74:	e3a02401 	mov	r2, #16777216	; 0x1000000
ffff2a78:	e59f0154 	ldr	r0, [pc, #340]	; 0xffff2bd4
ffff2a7c:	e58d3000 	str	r3, [sp]
ffff2a80:	e58d3004 	str	r3, [sp, #4]
ffff2a84:	e58d3008 	str	r3, [sp, #8]
ffff2a88:	e58d300c 	str	r3, [sp, #12]
ffff2a8c:	e59f3144 	ldr	r3, [pc, #324]	; 0xffff2bd8
ffff2a90:	e5832010 	str	r2, [r3, #16]
ffff2a94:	e59f2140 	ldr	r2, [pc, #320]	; 0xffff2bdc
ffff2a98:	e5922000 	ldr	r2, [r2]
ffff2a9c:	e3520001 	cmp	r2, #1
ffff2aa0:	83a02611 	movhi	r2, #17825792	; 0x1100000
ffff2aa4:	85832010 	strhi	r2, [r3, #16]
ffff2aa8:	ebfffbf3 	bl	0xffff1a7c
ffff2aac:	e59d2004 	ldr	r2, [sp, #4]
ffff2ab0:	e59d3000 	ldr	r3, [sp]
ffff2ab4:	e1a03083 	lsl	r3, r3, #1
ffff2ab8:	e1833802 	orr	r3, r3, r2, lsl #16
ffff2abc:	e59f2114 	ldr	r2, [pc, #276]	; 0xffff2bd8
ffff2ac0:	e3833001 	orr	r3, r3, #1
ffff2ac4:	e58230f4 	str	r3, [r2, #244]	; 0xf4
ffff2ac8:	e59230f4 	ldr	r3, [r2, #244]	; 0xf4
ffff2acc:	e3c33001 	bic	r3, r3, #1
ffff2ad0:	e58230f4 	str	r3, [r2, #244]	; 0xf4
ffff2ad4:	e59f3104 	ldr	r3, [pc, #260]	; 0xffff2be0
ffff2ad8:	e59d1008 	ldr	r1, [sp, #8]
ffff2adc:	e5932060 	ldr	r2, [r3, #96]	; 0x60
ffff2ae0:	e1a04003 	mov	r4, r3
ffff2ae4:	e1822081 	orr	r2, r2, r1, lsl #1
ffff2ae8:	e5832060 	str	r2, [r3, #96]	; 0x60
ffff2aec:	e5932004 	ldr	r2, [r3, #4]
ffff2af0:	e3822cff 	orr	r2, r2, #65280	; 0xff00
ffff2af4:	e5832004 	str	r2, [r3, #4]
ffff2af8:	e5932000 	ldr	r2, [r3]
ffff2afc:	e3c22a02 	bic	r2, r2, #8192	; 0x2000
ffff2b00:	e5832000 	str	r2, [r3]
ffff2b04:	e5932008 	ldr	r2, [r3, #8]
ffff2b08:	e3822301 	orr	r2, r2, #67108864	; 0x4000000
ffff2b0c:	e5832008 	str	r2, [r3, #8]
ffff2b10:	e5932008 	ldr	r2, [r3, #8]
ffff2b14:	e3822302 	orr	r2, r2, #134217728	; 0x8000000
ffff2b18:	e5832008 	str	r2, [r3, #8]
ffff2b1c:	e3a02000 	mov	r2, #0
ffff2b20:	e58d200c 	str	r2, [sp, #12]
ffff2b24:	e59d300c 	ldr	r3, [sp, #12]
ffff2b28:	e59f10b0 	ldr	r1, [pc, #176]	; 0xffff2be0
ffff2b2c:	e3530063 	cmp	r3, #99	; 0x63
ffff2b30:	ca000004 	bgt	0xffff2b48
ffff2b34:	e594300c 	ldr	r3, [r4, #12]
ffff2b38:	e58d3014 	str	r3, [sp, #20]
ffff2b3c:	e59d3014 	ldr	r3, [sp, #20]
ffff2b40:	e3130301 	tst	r3, #67108864	; 0x4000000
ffff2b44:	0a000009 	beq	0xffff2b70
ffff2b48:	e5913008 	ldr	r3, [r1, #8]
ffff2b4c:	e59f208c 	ldr	r2, [pc, #140]	; 0xffff2be0
ffff2b50:	e3c33302 	bic	r3, r3, #134217728	; 0x8000000
ffff2b54:	e5813008 	str	r3, [r1, #8]
ffff2b58:	e59d300c 	ldr	r3, [sp, #12]
ffff2b5c:	e3530064 	cmp	r3, #100	; 0x64
ffff2b60:	1a000008 	bne	0xffff2b88
ffff2b64:	e59f0078 	ldr	r0, [pc, #120]	; 0xffff2be4
ffff2b68:	ebfffbc3 	bl	0xffff1a7c
ffff2b6c:	ea00000d 	b	0xffff2ba8
ffff2b70:	e3a00c01 	mov	r0, #256	; 0x100
ffff2b74:	ebfffa11 	bl	0xffff13c0
ffff2b78:	e59d300c 	ldr	r3, [sp, #12]
ffff2b7c:	e2833001 	add	r3, r3, #1
ffff2b80:	e58d300c 	str	r3, [sp, #12]
ffff2b84:	eaffffe6 	b	0xffff2b24
ffff2b88:	e59230e0 	ldr	r3, [r2, #224]	; 0xe0
ffff2b8c:	e58d3010 	str	r3, [sp, #16]
ffff2b90:	e59d4010 	ldr	r4, [sp, #16]
ffff2b94:	e3540000 	cmp	r4, #0
ffff2b98:	0a000004 	beq	0xffff2bb0
ffff2b9c:	e59d1010 	ldr	r1, [sp, #16]
ffff2ba0:	e59f0040 	ldr	r0, [pc, #64]	; 0xffff2be8
ffff2ba4:	ebfffbb4 	bl	0xffff1a7c
ffff2ba8:	e3e04000 	mvn	r4, #0
ffff2bac:	ea000002 	b	0xffff2bbc
ffff2bb0:	e5922130 	ldr	r2, [r2, #304]	; 0x130
ffff2bb4:	e59f3030 	ldr	r3, [pc, #48]	; 0xffff2bec
ffff2bb8:	e5832000 	str	r2, [r3]
ffff2bbc:	ebffff54 	bl	0xffff2914
ffff2bc0:	e59f0028 	ldr	r0, [pc, #40]	; 0xffff2bf0
ffff2bc4:	ebfffbac 	bl	0xffff1a7c
ffff2bc8:	e1a00004 	mov	r0, r4
ffff2bcc:	e28dd018 	add	sp, sp, #24
ffff2bd0:	e8bd8010 	pop	{r4, pc}
ffff2bd4:	ffff4f82 			; <UNDEFINED> instruction: 0xffff4f82
ffff2bd8:	c00e0000 	andgt	r0, lr, r0
ffff2bdc:	ffff5474 			; <UNDEFINED> instruction: 0xffff5474
ffff2be0:	c00e1000 	andgt	r1, lr, r0
ffff2be4:	ffff4fb9 			; <UNDEFINED> instruction: 0xffff4fb9
ffff2be8:	ffff4fdb 			; <UNDEFINED> instruction: 0xffff4fdb
ffff2bec:	ffff5488 			; <UNDEFINED> instruction: 0xffff5488
ffff2bf0:	ffff5002 			; <UNDEFINED> instruction: 0xffff5002
ffff2bf4:	e92d47f0 	push	{r4, r5, r6, r7, r8, r9, sl, lr}
ffff2bf8:	e1a08000 	mov	r8, r0
ffff2bfc:	e59f058c 	ldr	r0, [pc, #1420]	; 0xffff3190
ffff2c00:	e3a04501 	mov	r4, #4194304	; 0x400000
ffff2c04:	e3a05000 	mov	r5, #0
ffff2c08:	ebfffb9b 	bl	0xffff1a7c
ffff2c0c:	ebfffc44 	bl	0xffff1d24
ffff2c10:	e59f357c 	ldr	r3, [pc, #1404]	; 0xffff3194
ffff2c14:	e3a02003 	mov	r2, #3
ffff2c18:	e3a01080 	mov	r1, #128	; 0x80
ffff2c1c:	e59f7574 	ldr	r7, [pc, #1396]	; 0xffff3198
ffff2c20:	e59f6574 	ldr	r6, [pc, #1396]	; 0xffff319c
ffff2c24:	e5c32000 	strb	r2, [r3]
ffff2c28:	e3a0200f 	mov	r2, #15
ffff2c2c:	e5870000 	str	r0, [r7]
ffff2c30:	e1a00280 	lsl	r0, r0, #5
ffff2c34:	e5c32001 	strb	r2, [r3, #1]
ffff2c38:	e3a0200a 	mov	r2, #10
ffff2c3c:	e1c341f0 	strd	r4, [r3, #16]
ffff2c40:	e3a04c02 	mov	r4, #512	; 0x200
ffff2c44:	e3a05000 	mov	r5, #0
ffff2c48:	e5c32002 	strb	r2, [r3, #2]
ffff2c4c:	e3a02902 	mov	r2, #32768	; 0x8000
ffff2c50:	e1c341f8 	strd	r4, [r3, #24]
ffff2c54:	e3a05010 	mov	r5, #16
ffff2c58:	e9830006 	stmib	r3, {r1, r2}
ffff2c5c:	e1a02da0 	lsr	r2, r0, #27
ffff2c60:	e1a00280 	lsl	r0, r0, #5
ffff2c64:	e5832024 	str	r2, [r3, #36]	; 0x24
ffff2c68:	e5830020 	str	r0, [r3, #32]
ffff2c6c:	e59f352c 	ldr	r3, [pc, #1324]	; 0xffff31a0
ffff2c70:	e5934000 	ldr	r4, [r3]
ffff2c74:	e5943000 	ldr	r3, [r4]
ffff2c78:	e3a00a01 	mov	r0, #4096	; 0x1000
ffff2c7c:	e3c33307 	bic	r3, r3, #469762048	; 0x1c000000
ffff2c80:	e5843000 	str	r3, [r4]
ffff2c84:	ebfff9cd 	bl	0xffff13c0
ffff2c88:	e5943000 	ldr	r3, [r4]
ffff2c8c:	e3a00a01 	mov	r0, #4096	; 0x1000
ffff2c90:	e3833307 	orr	r3, r3, #469762048	; 0x1c000000
ffff2c94:	e5843000 	str	r3, [r4]
ffff2c98:	ebfff9c8 	bl	0xffff13c0
ffff2c9c:	e5943000 	ldr	r3, [r4]
ffff2ca0:	e3a00a01 	mov	r0, #4096	; 0x1000
ffff2ca4:	e3c33307 	bic	r3, r3, #469762048	; 0x1c000000
ffff2ca8:	e5843000 	str	r3, [r4]
ffff2cac:	ebfff9c3 	bl	0xffff13c0
ffff2cb0:	e5943000 	ldr	r3, [r4]
ffff2cb4:	e3a00801 	mov	r0, #65536	; 0x10000
ffff2cb8:	e3833307 	orr	r3, r3, #469762048	; 0x1c000000
ffff2cbc:	e5843000 	str	r3, [r4]
ffff2cc0:	ebfff9be 	bl	0xffff13c0
ffff2cc4:	e596204c 	ldr	r2, [r6, #76]	; 0x4c
ffff2cc8:	e3003492 	movw	r3, #1170	; 0x492
ffff2ccc:	e1520003 	cmp	r2, r3
ffff2cd0:	0a000001 	beq	0xffff2cdc
ffff2cd4:	e2555001 	subs	r5, r5, #1
ffff2cd8:	2affffe5 	bcs	0xffff2c74
ffff2cdc:	e59f64b8 	ldr	r6, [pc, #1208]	; 0xffff319c
ffff2ce0:	e59f04bc 	ldr	r0, [pc, #1212]	; 0xffff31a4
ffff2ce4:	e59613ac 	ldr	r1, [r6, #940]	; 0x3ac
ffff2ce8:	ebfffb63 	bl	0xffff1a7c
ffff2cec:	e3550000 	cmp	r5, #0
ffff2cf0:	ca000003 	bgt	0xffff2d04
ffff2cf4:	e59f04ac 	ldr	r0, [pc, #1196]	; 0xffff31a8
ffff2cf8:	ebfffb5f 	bl	0xffff1a7c
ffff2cfc:	e3e00000 	mvn	r0, #0
ffff2d00:	e8bd87f0 	pop	{r4, r5, r6, r7, r8, r9, sl, pc}
ffff2d04:	e3a09000 	mov	r9, #0
ffff2d08:	e3a05000 	mov	r5, #0
ffff2d0c:	e59f0498 	ldr	r0, [pc, #1176]	; 0xffff31ac
ffff2d10:	e3a03002 	mov	r3, #2
ffff2d14:	e7cf901f 	bfc	r9, #0, #16
ffff2d18:	e7cf501f 	bfc	r5, #0, #16
ffff2d1c:	e7ca9493 	bfi	r9, r3, #9, #2
ffff2d20:	e7c1501f 	bfc	r5, #0, #2
ffff2d24:	e7c7939f 	bfc	r9, #7, #1
ffff2d28:	e3855008 	orr	r5, r5, #8
ffff2d2c:	e3a03003 	mov	r3, #3
ffff2d30:	e7c6931f 	bfc	r9, #6, #1
ffff2d34:	e7c2511f 	bfc	r5, #2, #1
ffff2d38:	e7c59193 	bfi	r9, r3, #3, #3
ffff2d3c:	e3855e17 	orr	r5, r5, #368	; 0x170
ffff2d40:	e3a03006 	mov	r3, #6
ffff2d44:	e3a04000 	mov	r4, #0
ffff2d48:	e7cb5493 	bfi	r5, r3, #9, #3
ffff2d4c:	e59f345c 	ldr	r3, [pc, #1116]	; 0xffff31b0
ffff2d50:	e7cf401f 	bfc	r4, #0, #16
ffff2d54:	e7c0401f 	bfc	r4, #0, #1
ffff2d58:	e3a0a000 	mov	sl, #0
ffff2d5c:	e7c4419f 	bfc	r4, #3, #2
ffff2d60:	e7cfa01f 	bfc	sl, #0, #16
ffff2d64:	e7c5429f 	bfc	r4, #5, #1
ffff2d68:	e7c2a11f 	bfc	sl, #2, #1
ffff2d6c:	e5863000 	str	r3, [r6]
ffff2d70:	e5963064 	ldr	r3, [r6, #100]	; 0x64
ffff2d74:	e3844002 	orr	r4, r4, #2
ffff2d78:	e7c9449f 	bfc	r4, #9, #1
ffff2d7c:	e7c1a01f 	bfc	sl, #0, #2
ffff2d80:	e7c6431f 	bfc	r4, #6, #1
ffff2d84:	e7cc561f 	bfc	r5, #12, #1
ffff2d88:	e3844004 	orr	r4, r4, #4
ffff2d8c:	e3c33dff 	bic	r3, r3, #16320	; 0x3fc0
ffff2d90:	e7cc461f 	bfc	r4, #12, #1
ffff2d94:	e3c3303f 	bic	r3, r3, #63	; 0x3f
ffff2d98:	e7c7439f 	bfc	r4, #7, #1
ffff2d9c:	e3833d41 	orr	r3, r3, #4160	; 0x1040
ffff2da0:	e383301e 	orr	r3, r3, #30
ffff2da4:	e5863064 	str	r3, [r6, #100]	; 0x64
ffff2da8:	e5963068 	ldr	r3, [r6, #104]	; 0x68
ffff2dac:	e3c33dff 	bic	r3, r3, #16320	; 0x3fc0
ffff2db0:	e3c3303f 	bic	r3, r3, #63	; 0x3f
ffff2db4:	e3833d41 	orr	r3, r3, #4160	; 0x1040
ffff2db8:	e383303f 	orr	r3, r3, #63	; 0x3f
ffff2dbc:	e5863068 	str	r3, [r6, #104]	; 0x68
ffff2dc0:	ebfffb2d 	bl	0xffff1a7c
ffff2dc4:	e59f33e8 	ldr	r3, [pc, #1000]	; 0xffff31b4
ffff2dc8:	e5863010 	str	r3, [r6, #16]
ffff2dcc:	e3a03000 	mov	r3, #0
ffff2dd0:	e586309c 	str	r3, [r6, #156]	; 0x9c
ffff2dd4:	e58630a0 	str	r3, [r6, #160]	; 0xa0
ffff2dd8:	e59f33d8 	ldr	r3, [pc, #984]	; 0xffff31b8
ffff2ddc:	e58630c0 	str	r3, [r6, #192]	; 0xc0
ffff2de0:	e59630c0 	ldr	r3, [r6, #192]	; 0xc0
ffff2de4:	e3833002 	orr	r3, r3, #2
ffff2de8:	e58630c0 	str	r3, [r6, #192]	; 0xc0
ffff2dec:	e59620c4 	ldr	r2, [r6, #196]	; 0xc4
ffff2df0:	e59f33a4 	ldr	r3, [pc, #932]	; 0xffff319c
ffff2df4:	e3120001 	tst	r2, #1
ffff2df8:	0afffffb 	beq	0xffff2dec
ffff2dfc:	e59320c0 	ldr	r2, [r3, #192]	; 0xc0
ffff2e00:	e3c22002 	bic	r2, r2, #2
ffff2e04:	e58320c0 	str	r2, [r3, #192]	; 0xc0
ffff2e08:	e59320c0 	ldr	r2, [r3, #192]	; 0xc0
ffff2e0c:	e3c22701 	bic	r2, r2, #262144	; 0x40000
ffff2e10:	e58320c0 	str	r2, [r3, #192]	; 0xc0
ffff2e14:	e59f23a0 	ldr	r2, [pc, #928]	; 0xffff31bc
ffff2e18:	e2433a01 	sub	r3, r3, #4096	; 0x1000
ffff2e1c:	e5832000 	str	r2, [r3]
ffff2e20:	e5932000 	ldr	r2, [r3]
ffff2e24:	e3822201 	orr	r2, r2, #268435456	; 0x10000000
ffff2e28:	e5832000 	str	r2, [r3]
ffff2e2c:	e1a02003 	mov	r2, r3
ffff2e30:	e5921040 	ldr	r1, [r2, #64]	; 0x40
ffff2e34:	e59f3384 	ldr	r3, [pc, #900]	; 0xffff31c0
ffff2e38:	e3110008 	tst	r1, #8
ffff2e3c:	0afffffb 	beq	0xffff2e30
ffff2e40:	e5932000 	ldr	r2, [r3]
ffff2e44:	e3a0100f 	mov	r1, #15
ffff2e48:	e6ff9079 	uxth	r9, r9
ffff2e4c:	e59f0370 	ldr	r0, [pc, #880]	; 0xffff31c4
ffff2e50:	e6ffa07a 	uxth	sl, sl
ffff2e54:	e59fc36c 	ldr	ip, [pc, #876]	; 0xffff31c8
ffff2e58:	e6ff4074 	uxth	r4, r4
ffff2e5c:	e6ff5075 	uxth	r5, r5
ffff2e60:	e3c22201 	bic	r2, r2, #268435456	; 0x10000000
ffff2e64:	e5832000 	str	r2, [r3]
ffff2e68:	e59f232c 	ldr	r2, [pc, #812]	; 0xffff319c
ffff2e6c:	e5821018 	str	r1, [r2, #24]
ffff2e70:	e5932018 	ldr	r2, [r3, #24]
ffff2e74:	e3822008 	orr	r2, r2, #8
ffff2e78:	e5832018 	str	r2, [r3, #24]
ffff2e7c:	e5932018 	ldr	r2, [r3, #24]
ffff2e80:	e3c22008 	bic	r2, r2, #8
ffff2e84:	e5832018 	str	r2, [r3, #24]
ffff2e88:	e5971000 	ldr	r1, [r7]
ffff2e8c:	e2412001 	sub	r2, r1, #1
ffff2e90:	e3510001 	cmp	r1, #1
ffff2e94:	e1a02802 	lsl	r2, r2, #16
ffff2e98:	e3822603 	orr	r2, r2, #3145728	; 0x300000
ffff2e9c:	e3822c26 	orr	r2, r2, #9728	; 0x2600
ffff2ea0:	e5832004 	str	r2, [r3, #4]
ffff2ea4:	e3a0221e 	mov	r2, #-536870911	; 0xe0000001
ffff2ea8:	e5832018 	str	r2, [r3, #24]
ffff2eac:	e5932018 	ldr	r2, [r3, #24]
ffff2eb0:	e3822008 	orr	r2, r2, #8
ffff2eb4:	e5832018 	str	r2, [r3, #24]
ffff2eb8:	e5932018 	ldr	r2, [r3, #24]
ffff2ebc:	e3c22008 	bic	r2, r2, #8
ffff2ec0:	e5832018 	str	r2, [r3, #24]
ffff2ec4:	e59f2300 	ldr	r2, [pc, #768]	; 0xffff31cc
ffff2ec8:	e2833a05 	add	r3, r3, #20480	; 0x5000
ffff2ecc:	e5832f00 	str	r2, [r3, #3840]	; 0xf00
ffff2ed0:	e2822501 	add	r2, r2, #4194304	; 0x400000
ffff2ed4:	e5832f04 	str	r2, [r3, #3844]	; 0xf04
ffff2ed8:	e3022333 	movw	r2, #9011	; 0x2333
ffff2edc:	e5832f10 	str	r2, [r3, #3856]	; 0xf10
ffff2ee0:	85832f14 	strhi	r2, [r3, #3860]	; 0xf14
ffff2ee4:	e59f32d4 	ldr	r3, [pc, #724]	; 0xffff31c0
ffff2ee8:	e3a02000 	mov	r2, #0
ffff2eec:	e3510001 	cmp	r1, #1
ffff2ef0:	e583201c 	str	r2, [r3, #28]
ffff2ef4:	e3a020ff 	mov	r2, #255	; 0xff
ffff2ef8:	e5832028 	str	r2, [r3, #40]	; 0x28
ffff2efc:	e59f22cc 	ldr	r2, [pc, #716]	; 0xffff31d0
ffff2f00:	e5832030 	str	r2, [r3, #48]	; 0x30
ffff2f04:	e59f22c8 	ldr	r2, [pc, #712]	; 0xffff31d4
ffff2f08:	e583c034 	str	ip, [r3, #52]	; 0x34
ffff2f0c:	e5830038 	str	r0, [r3, #56]	; 0x38
ffff2f10:	e583203c 	str	r2, [r3, #60]	; 0x3c
ffff2f14:	8583c0e4 	strhi	ip, [r3, #228]	; 0xe4
ffff2f18:	858300e8 	strhi	r0, [r3, #232]	; 0xe8
ffff2f1c:	e304001b 	movw	r0, #16411	; 0x401b
ffff2f20:	858320ec 	strhi	r2, [r3, #236]	; 0xec
ffff2f24:	e3510001 	cmp	r1, #1
ffff2f28:	e59f2290 	ldr	r2, [pc, #656]	; 0xffff31c0
ffff2f2c:	e583002c 	str	r0, [r3, #44]	; 0x2c
ffff2f30:	e3a00020 	mov	r0, #32
ffff2f34:	e5830120 	str	r0, [r3, #288]	; 0x120
ffff2f38:	e3a00407 	mov	r0, #117440512	; 0x7000000
ffff2f3c:	e5830010 	str	r0, [r3, #16]
ffff2f40:	e3890802 	orr	r0, r9, #131072	; 0x20000
ffff2f44:	e5830010 	str	r0, [r3, #16]
ffff2f48:	e38a0803 	orr	r0, sl, #196608	; 0x30000
ffff2f4c:	e5830010 	str	r0, [r3, #16]
ffff2f50:	e3840801 	orr	r0, r4, #65536	; 0x10000
ffff2f54:	e5830010 	str	r0, [r3, #16]
ffff2f58:	e3a0040a 	mov	r0, #167772160	; 0xa000000
ffff2f5c:	e5835010 	str	r5, [r3, #16]
ffff2f60:	e5830010 	str	r0, [r3, #16]
ffff2f64:	9a00000b 	bls	0xffff2f98
ffff2f68:	e3a03671 	mov	r3, #118489088	; 0x7100000
ffff2f6c:	e3899812 	orr	r9, r9, #1179648	; 0x120000
ffff2f70:	e38aa813 	orr	sl, sl, #1245184	; 0x130000
ffff2f74:	e3844811 	orr	r4, r4, #1114112	; 0x110000
ffff2f78:	e5823010 	str	r3, [r2, #16]
ffff2f7c:	e3855601 	orr	r5, r5, #1048576	; 0x100000
ffff2f80:	e3a036a1 	mov	r3, #168820736	; 0xa100000
ffff2f84:	e5829010 	str	r9, [r2, #16]
ffff2f88:	e582a010 	str	sl, [r2, #16]
ffff2f8c:	e5824010 	str	r4, [r2, #16]
ffff2f90:	e5825010 	str	r5, [r2, #16]
ffff2f94:	e5823010 	str	r3, [r2, #16]
ffff2f98:	e3a00064 	mov	r0, #100	; 0x64
ffff2f9c:	ebfff907 	bl	0xffff13c0
ffff2fa0:	e59f0230 	ldr	r0, [pc, #560]	; 0xffff31d8
ffff2fa4:	ebfffab4 	bl	0xffff1a7c
ffff2fa8:	e59f31ec 	ldr	r3, [pc, #492]	; 0xffff319c
ffff2fac:	e5932000 	ldr	r2, [r3]
ffff2fb0:	e3822040 	orr	r2, r2, #64	; 0x40
ffff2fb4:	e5832000 	str	r2, [r3]
ffff2fb8:	e5932000 	ldr	r2, [r3]
ffff2fbc:	e3822901 	orr	r2, r2, #16384	; 0x4000
ffff2fc0:	e5832000 	str	r2, [r3]
ffff2fc4:	e5932008 	ldr	r2, [r3, #8]
ffff2fc8:	e3822040 	orr	r2, r2, #64	; 0x40
ffff2fcc:	e5832008 	str	r2, [r3, #8]
ffff2fd0:	e5932000 	ldr	r2, [r3]
ffff2fd4:	e3822a02 	orr	r2, r2, #8192	; 0x2000
ffff2fd8:	e5832000 	str	r2, [r3]
ffff2fdc:	e5932004 	ldr	r2, [r3, #4]
ffff2fe0:	e3c2280f 	bic	r2, r2, #983040	; 0xf0000
ffff2fe4:	e3822701 	orr	r2, r2, #262144	; 0x40000
ffff2fe8:	e5832004 	str	r2, [r3, #4]
ffff2fec:	e301205e 	movw	r2, #4190	; 0x105e
ffff2ff0:	e5832064 	str	r2, [r3, #100]	; 0x64
ffff2ff4:	e301207f 	movw	r2, #4223	; 0x107f
ffff2ff8:	e5832068 	str	r2, [r3, #104]	; 0x68
ffff2ffc:	e5932008 	ldr	r2, [r3, #8]
ffff3000:	e3c2287f 	bic	r2, r2, #8323072	; 0x7f0000
ffff3004:	e3822801 	orr	r2, r2, #65536	; 0x10000
ffff3008:	e5832008 	str	r2, [r3, #8]
ffff300c:	e1a02003 	mov	r2, r3
ffff3010:	e59310b0 	ldr	r1, [r3, #176]	; 0xb0
ffff3014:	e3811020 	orr	r1, r1, #32
ffff3018:	e58310b0 	str	r1, [r3, #176]	; 0xb0
ffff301c:	e59210b4 	ldr	r1, [r2, #180]	; 0xb4
ffff3020:	e59f4174 	ldr	r4, [pc, #372]	; 0xffff319c
ffff3024:	e2011007 	and	r1, r1, #7
ffff3028:	e3510007 	cmp	r1, #7
ffff302c:	1afffffa 	bne	0xffff301c
ffff3030:	e59210b0 	ldr	r1, [r2, #176]	; 0xb0
ffff3034:	e3c11020 	bic	r1, r1, #32
ffff3038:	e58210b0 	str	r1, [r2, #176]	; 0xb0
ffff303c:	e59210b4 	ldr	r1, [r2, #180]	; 0xb4
ffff3040:	e2010007 	and	r0, r1, #7
ffff3044:	e3500007 	cmp	r0, #7
ffff3048:	1afffff0 	bne	0xffff3010
ffff304c:	e59f5188 	ldr	r5, [pc, #392]	; 0xffff31dc
ffff3050:	e7e81451 	ubfx	r1, r1, #8, #9
ffff3054:	e5851000 	str	r1, [r5]
ffff3058:	e59420b0 	ldr	r2, [r4, #176]	; 0xb0
ffff305c:	e3c23cff 	bic	r3, r2, #65280	; 0xff00
ffff3060:	e3c33080 	bic	r3, r3, #128	; 0x80
ffff3064:	e1833381 	orr	r3, r3, r1, lsl #7
ffff3068:	e58430b0 	str	r3, [r4, #176]	; 0xb0
ffff306c:	ebfffcb0 	bl	0xffff2334
ffff3070:	e3500000 	cmp	r0, #0
ffff3074:	baffff20 	blt	0xffff2cfc
ffff3078:	e5943050 	ldr	r3, [r4, #80]	; 0x50
ffff307c:	e59f015c 	ldr	r0, [pc, #348]	; 0xffff31e0
ffff3080:	e3833401 	orr	r3, r3, #16777216	; 0x1000000
ffff3084:	e5843050 	str	r3, [r4, #80]	; 0x50
ffff3088:	e5943050 	ldr	r3, [r4, #80]	; 0x50
ffff308c:	e3c33401 	bic	r3, r3, #16777216	; 0x1000000
ffff3090:	e5843050 	str	r3, [r4, #80]	; 0x50
ffff3094:	e59430b0 	ldr	r3, [r4, #176]	; 0xb0
ffff3098:	e3833020 	orr	r3, r3, #32
ffff309c:	e58430b0 	str	r3, [r4, #176]	; 0xb0
ffff30a0:	e5943008 	ldr	r3, [r4, #8]
ffff30a4:	e3833a01 	orr	r3, r3, #4096	; 0x1000
ffff30a8:	e5843008 	str	r3, [r4, #8]
ffff30ac:	e5943050 	ldr	r3, [r4, #80]	; 0x50
ffff30b0:	e3833201 	orr	r3, r3, #268435456	; 0x10000000
ffff30b4:	e5843050 	str	r3, [r4, #80]	; 0x50
ffff30b8:	e59f3100 	ldr	r3, [pc, #256]	; 0xffff31c0
ffff30bc:	e3a04000 	mov	r4, #0
ffff30c0:	e5931018 	ldr	r1, [r3, #24]
ffff30c4:	e3811008 	orr	r1, r1, #8
ffff30c8:	e5831018 	str	r1, [r3, #24]
ffff30cc:	e5931018 	ldr	r1, [r3, #24]
ffff30d0:	e3c11008 	bic	r1, r1, #8
ffff30d4:	e5831018 	str	r1, [r3, #24]
ffff30d8:	e3a01401 	mov	r1, #16777216	; 0x1000000
ffff30dc:	e5831010 	str	r1, [r3, #16]
ffff30e0:	e5971000 	ldr	r1, [r7]
ffff30e4:	e3510001 	cmp	r1, #1
ffff30e8:	83a01611 	movhi	r1, #17825792	; 0x1100000
ffff30ec:	85831010 	strhi	r1, [r3, #16]
ffff30f0:	e59f10ec 	ldr	r1, [pc, #236]	; 0xffff31e4
ffff30f4:	e3580000 	cmp	r8, #0
ffff30f8:	11a08000 	movne	r8, r0
ffff30fc:	e59f00e4 	ldr	r0, [pc, #228]	; 0xffff31e8
ffff3100:	01a08001 	moveq	r8, r1
ffff3104:	e5838000 	str	r8, [r3]
ffff3108:	e5834008 	str	r4, [r3, #8]
ffff310c:	e5951000 	ldr	r1, [r5]
ffff3110:	ebfffa59 	bl	0xffff1a7c
ffff3114:	e59f30d0 	ldr	r3, [pc, #208]	; 0xffff31ec
ffff3118:	e59f00d0 	ldr	r0, [pc, #208]	; 0xffff31f0
ffff311c:	e59f5078 	ldr	r5, [pc, #120]	; 0xffff319c
ffff3120:	e5931000 	ldr	r1, [r3]
ffff3124:	ebfffa54 	bl	0xffff1a7c
ffff3128:	e59f30c4 	ldr	r3, [pc, #196]	; 0xffff31f4
ffff312c:	e59f00c4 	ldr	r0, [pc, #196]	; 0xffff31f8
ffff3130:	e5931000 	ldr	r1, [r3]
ffff3134:	ebfffa50 	bl	0xffff1a7c
ffff3138:	e59f30bc 	ldr	r3, [pc, #188]	; 0xffff31fc
ffff313c:	e59f00bc 	ldr	r0, [pc, #188]	; 0xffff3200
ffff3140:	e5931000 	ldr	r1, [r3]
ffff3144:	ebfffa4c 	bl	0xffff1a7c
ffff3148:	e59f30b4 	ldr	r3, [pc, #180]	; 0xffff3204
ffff314c:	e59f00b4 	ldr	r0, [pc, #180]	; 0xffff3208
ffff3150:	e5931000 	ldr	r1, [r3]
ffff3154:	ebfffa48 	bl	0xffff1a7c
ffff3158:	e595104c 	ldr	r1, [r5, #76]	; 0x4c
ffff315c:	e59f00a8 	ldr	r0, [pc, #168]	; 0xffff320c
ffff3160:	ebfffa45 	bl	0xffff1a7c
ffff3164:	e5951040 	ldr	r1, [r5, #64]	; 0x40
ffff3168:	e59f00a0 	ldr	r0, [pc, #160]	; 0xffff3210
ffff316c:	ebfffa42 	bl	0xffff1a7c
ffff3170:	e5951020 	ldr	r1, [r5, #32]
ffff3174:	e59f0098 	ldr	r0, [pc, #152]	; 0xffff3214
ffff3178:	ebfffa3f 	bl	0xffff1a7c
ffff317c:	e5951030 	ldr	r1, [r5, #48]	; 0x30
ffff3180:	e59f0090 	ldr	r0, [pc, #144]	; 0xffff3218
ffff3184:	ebfffa3c 	bl	0xffff1a7c
ffff3188:	e1a00004 	mov	r0, r4
ffff318c:	e8bd87f0 	pop	{r4, r5, r6, r7, r8, r9, sl, pc}
ffff3190:	ffff5037 			; <UNDEFINED> instruction: 0xffff5037
ffff3194:	ffff5448 			; <UNDEFINED> instruction: 0xffff5448
ffff3198:	ffff5474 			; <UNDEFINED> instruction: 0xffff5474
ffff319c:	c00e1000 	andgt	r1, lr, r0
ffff31a0:	ffff4800 			; <UNDEFINED> instruction: 0xffff4800
ffff31a4:	ffff504f 			; <UNDEFINED> instruction: 0xffff504f
ffff31a8:	ffff5162 			; <UNDEFINED> instruction: 0xffff5162
ffff31ac:	ffff518b 			; <UNDEFINED> instruction: 0xffff518b
ffff31b0:	174e0e40 	strbne	r0, [lr, -r0, asr #28]
ffff31b4:	0008080b 	andeq	r0, r8, fp, lsl #16
ffff31b8:	0c240304 	stceq	3, cr0, [r4], #-16
ffff31bc:	0fff3000 	svceq	0x00ff3000
ffff31c0:	c00e0000 	andgt	r0, lr, r0
ffff31c4:	3630580b 	ldrtcc	r5, [r0], -fp, lsl #16
ffff31c8:	6836650e 	ldmdavs	r6!, {r1, r2, r3, r8, sl, sp, lr}
ffff31cc:	004007c0 	subeq	r0, r0, r0, asr #15
ffff31d0:	00620618 	rsbeq	r0, r2, r8, lsl r6
ffff31d4:	41000a26 	tstmi	r0, r6, lsr #20
ffff31d8:	ffff5065 			; <UNDEFINED> instruction: 0xffff5065
ffff31dc:	ffff5480 			; <UNDEFINED> instruction: 0xffff5480
ffff31e0:	0fff1100 	svceq	0x00ff1100
ffff31e4:	0fff1120 	svceq	0x00ff1120
ffff31e8:	ffff5093 			; <UNDEFINED> instruction: 0xffff5093
ffff31ec:	ffff5484 			; <UNDEFINED> instruction: 0xffff5484
ffff31f0:	ffff50aa 			; <UNDEFINED> instruction: 0xffff50aa
ffff31f4:	ffff5478 			; <UNDEFINED> instruction: 0xffff5478
ffff31f8:	ffff50c1 			; <UNDEFINED> instruction: 0xffff50c1
ffff31fc:	ffff5470 			; <UNDEFINED> instruction: 0xffff5470
ffff3200:	ffff50d8 			; <UNDEFINED> instruction: 0xffff50d8
ffff3204:	ffff5488 			; <UNDEFINED> instruction: 0xffff5488
ffff3208:	ffff50ef 			; <UNDEFINED> instruction: 0xffff50ef
ffff320c:	ffff5106 			; <UNDEFINED> instruction: 0xffff5106
ffff3210:	ffff511d 			; <UNDEFINED> instruction: 0xffff511d
ffff3214:	ffff5134 			; <UNDEFINED> instruction: 0xffff5134
ffff3218:	ffff514b 			; <UNDEFINED> instruction: 0xffff514b
ffff321c:	e92d4070 	push	{r4, r5, r6, lr}
ffff3220:	e1a05000 	mov	r5, r0
ffff3224:	e3a06004 	mov	r6, #4
ffff3228:	e3a04000 	mov	r4, #0
ffff322c:	e2566001 	subs	r6, r6, #1
ffff3230:	0a000005 	beq	0xffff324c
ffff3234:	e1a00005 	mov	r0, r5
ffff3238:	ebfffe6d 	bl	0xffff2bf4
ffff323c:	e1a04000 	mov	r4, r0
ffff3240:	ebfffacc 	bl	0xffff1d78
ffff3244:	e3540000 	cmp	r4, #0
ffff3248:	bafffff7 	blt	0xffff322c
ffff324c:	e3550000 	cmp	r5, #0
ffff3250:	0a000000 	beq	0xffff3258
ffff3254:	ebfffb2a 	bl	0xffff1f04
ffff3258:	e59f301c 	ldr	r3, [pc, #28]	; 0xffff327c
ffff325c:	e3540000 	cmp	r4, #0
ffff3260:	e1a01005 	mov	r1, r5
ffff3264:	e59f2014 	ldr	r2, [pc, #20]	; 0xffff3280
ffff3268:	e59f0014 	ldr	r0, [pc, #20]	; 0xffff3284
ffff326c:	01a02003 	moveq	r2, r3
ffff3270:	ebfff9f7 	bl	0xffff1a54
ffff3274:	e1a00004 	mov	r0, r4
ffff3278:	e8bd8070 	pop	{r4, r5, r6, pc}
ffff327c:	ffff51a9 			; <UNDEFINED> instruction: 0xffff51a9
ffff3280:	ffff51a1 			; <UNDEFINED> instruction: 0xffff51a1
ffff3284:	ffff51ae 			; <UNDEFINED> instruction: 0xffff51ae
ffff3288:	e92d4010 	push	{r4, lr}
ffff328c:	e3a00025 	mov	r0, #37	; 0x25
ffff3290:	e3a01001 	mov	r1, #1
ffff3294:	ebfff752 	bl	0xffff0fe4
ffff3298:	e3a00025 	mov	r0, #37	; 0x25
ffff329c:	e3a01000 	mov	r1, #0
ffff32a0:	e8bd4010 	pop	{r4, lr}
ffff32a4:	eafff74e 	b	0xffff0fe4
ffff32a8:	e92d4010 	push	{r4, lr}
ffff32ac:	e3a00024 	mov	r0, #36	; 0x24
ffff32b0:	e3a01001 	mov	r1, #1
ffff32b4:	ebfff74a 	bl	0xffff0fe4
ffff32b8:	e3a00024 	mov	r0, #36	; 0x24
ffff32bc:	e3a01000 	mov	r1, #0
ffff32c0:	e8bd4010 	pop	{r4, lr}
ffff32c4:	eafff746 	b	0xffff0fe4
ffff32c8:	e12fff1e 	bx	lr
ffff32cc:	e59f30bc 	ldr	r3, [pc, #188]	; 0xffff3390
ffff32d0:	e59f20bc 	ldr	r2, [pc, #188]	; 0xffff3394
ffff32d4:	e59fc0bc 	ldr	ip, [pc, #188]	; 0xffff3398
ffff32d8:	e5832104 	str	r2, [r3, #260]	; 0x104
ffff32dc:	e3a02077 	mov	r2, #119	; 0x77
ffff32e0:	e5832100 	str	r2, [r3, #256]	; 0x100
ffff32e4:	e3a03000 	mov	r3, #0
ffff32e8:	e1a02103 	lsl	r2, r3, #2
ffff32ec:	e1a00183 	lsl	r0, r3, #3
ffff32f0:	e08c1002 	add	r1, ip, r2
ffff32f4:	e19220bc 	ldrh	r2, [r2, ip]
ffff32f8:	e2833001 	add	r3, r3, #1
ffff32fc:	e1d110b2 	ldrh	r1, [r1, #2]
ffff3300:	e1821801 	orr	r1, r2, r1, lsl #16
ffff3304:	e59f2090 	ldr	r2, [pc, #144]	; 0xffff339c
ffff3308:	e0802002 	add	r2, r0, r2
ffff330c:	e5920000 	ldr	r0, [r2]
ffff3310:	e1500001 	cmp	r0, r1
ffff3314:	15821000 	strne	r1, [r2]
ffff3318:	e3530010 	cmp	r3, #16
ffff331c:	1afffff1 	bne	0xffff32e8
ffff3320:	e59f3078 	ldr	r3, [pc, #120]	; 0xffff33a0
ffff3324:	e5932134 	ldr	r2, [r3, #308]	; 0x134
ffff3328:	e3c2200f 	bic	r2, r2, #15
ffff332c:	e3822005 	orr	r2, r2, #5
ffff3330:	e5832134 	str	r2, [r3, #308]	; 0x134
ffff3334:	e5932130 	ldr	r2, [r3, #304]	; 0x130
ffff3338:	e3c2230f 	bic	r2, r2, #1006632960	; 0x3c000000
ffff333c:	e3822305 	orr	r2, r2, #335544320	; 0x14000000
ffff3340:	e5832130 	str	r2, [r3, #304]	; 0x130
ffff3344:	e59f2058 	ldr	r2, [pc, #88]	; 0xffff33a4
ffff3348:	e5832208 	str	r2, [r3, #520]	; 0x208
ffff334c:	e59f2054 	ldr	r2, [pc, #84]	; 0xffff33a8
ffff3350:	e5832128 	str	r2, [r3, #296]	; 0x128
ffff3354:	e5932124 	ldr	r2, [r3, #292]	; 0x124
ffff3358:	e59f204c 	ldr	r2, [pc, #76]	; 0xffff33ac
ffff335c:	e5832124 	str	r2, [r3, #292]	; 0x124
ffff3360:	e3a0231e 	mov	r2, #2013265920	; 0x78000000
ffff3364:	e5832120 	str	r2, [r3, #288]	; 0x120
ffff3368:	e59f2040 	ldr	r2, [pc, #64]	; 0xffff33b0
ffff336c:	e583211c 	str	r2, [r3, #284]	; 0x11c
ffff3370:	e59f203c 	ldr	r2, [pc, #60]	; 0xffff33b4
ffff3374:	e5832118 	str	r2, [r3, #280]	; 0x118
ffff3378:	e5931114 	ldr	r1, [r3, #276]	; 0x114
ffff337c:	e242200a 	sub	r2, r2, #10
ffff3380:	e201101f 	and	r1, r1, #31
ffff3384:	e1812002 	orr	r2, r1, r2
ffff3388:	e5832114 	str	r2, [r3, #276]	; 0x114
ffff338c:	e12fff1e 	bx	lr
ffff3390:	c00e0000 	andgt	r0, lr, r0
ffff3394:	f38ff38f 	vsubw.u8	<illegal reg q7.5>, <illegal reg q15.5>, d15
ffff3398:	ffff52f6 			; <UNDEFINED> instruction: 0xffff52f6
ffff339c:	c00e0060 	andgt	r0, lr, r0, rrx
ffff33a0:	c0011000 	andgt	r1, r1, r0
ffff33a4:	05555eee 	ldrbeq	r5, [r5, #-3822]	; 0xfffff112
ffff33a8:	05555555 	ldrbeq	r5, [r5, #-1365]	; 0xfffffaab
ffff33ac:	55eeef00 	strbpl	lr, [lr, #3840]!	; 0xf00
ffff33b0:	000555aa 	andeq	r5, r5, sl, lsr #11
ffff33b4:	0aaaaaaa 	beq	0xfea9de64
ffff33b8:	e92d43f0 	push	{r4, r5, r6, r7, r8, r9, lr}
ffff33bc:	e282200f 	add	r2, r2, #15
ffff33c0:	e24dd014 	sub	sp, sp, #20
ffff33c4:	e1a06000 	mov	r6, r0
ffff33c8:	e1a05001 	mov	r5, r1
ffff33cc:	e3a00013 	mov	r0, #19
ffff33d0:	e3a01001 	mov	r1, #1
ffff33d4:	e3c2400f 	bic	r4, r2, #15
ffff33d8:	ebfff701 	bl	0xffff0fe4
ffff33dc:	e3a00013 	mov	r0, #19
ffff33e0:	e3a01000 	mov	r1, #0
ffff33e4:	ebfff6fe 	bl	0xffff0fe4
ffff33e8:	e59f20fc 	ldr	r2, [pc, #252]	; 0xffff34ec
ffff33ec:	e592305c 	ldr	r3, [r2, #92]	; 0x5c
ffff33f0:	e3130902 	tst	r3, #32768	; 0x8000
ffff33f4:	0afffffc 	beq	0xffff33ec
ffff33f8:	e3a00007 	mov	r0, #7
ffff33fc:	e3a01001 	mov	r1, #1
ffff3400:	ebfff6f7 	bl	0xffff0fe4
ffff3404:	e3a00007 	mov	r0, #7
ffff3408:	e3a01000 	mov	r1, #0
ffff340c:	ebfff6f4 	bl	0xffff0fe4
ffff3410:	e59f30d8 	ldr	r3, [pc, #216]	; 0xffff34f0
ffff3414:	e3a02008 	mov	r2, #8
ffff3418:	e2860010 	add	r0, r6, #16
ffff341c:	e3a0e000 	mov	lr, #0
ffff3420:	e3087308 	movw	r7, #33544	; 0x8308
ffff3424:	e1a0100d 	mov	r1, sp
ffff3428:	e3088309 	movw	r8, #33545	; 0x8309
ffff342c:	e5832000 	str	r2, [r3]
ffff3430:	e2433ab1 	sub	r3, r3, #724992	; 0xb1000
ffff3434:	e1a02124 	lsr	r2, r4, #2
ffff3438:	e1a0c003 	mov	ip, r3
ffff343c:	e15e0002 	cmp	lr, r2
ffff3440:	2a000027 	bcs	0xffff34e4
ffff3444:	e1a06000 	mov	r6, r0
ffff3448:	e3a04000 	mov	r4, #0
ffff344c:	e583700c 	str	r7, [r3, #12]
ffff3450:	e5769001 	ldrb	r9, [r6, #-1]!
ffff3454:	e7c49001 	strb	r9, [r4, r1]
ffff3458:	e2844001 	add	r4, r4, #1
ffff345c:	e3540010 	cmp	r4, #16
ffff3460:	1afffffa 	bne	0xffff3450
ffff3464:	e59d400c 	ldr	r4, [sp, #12]
ffff3468:	e5834050 	str	r4, [r3, #80]	; 0x50
ffff346c:	e59d4008 	ldr	r4, [sp, #8]
ffff3470:	e5834054 	str	r4, [r3, #84]	; 0x54
ffff3474:	e59d4004 	ldr	r4, [sp, #4]
ffff3478:	e5834058 	str	r4, [r3, #88]	; 0x58
ffff347c:	e59d4000 	ldr	r4, [sp]
ffff3480:	e583405c 	str	r4, [r3, #92]	; 0x5c
ffff3484:	e583800c 	str	r8, [r3, #12]
ffff3488:	e5934000 	ldr	r4, [r3]
ffff348c:	e3844001 	orr	r4, r4, #1
ffff3490:	e5834000 	str	r4, [r3]
ffff3494:	e59c4000 	ldr	r4, [ip]
ffff3498:	e3140001 	tst	r4, #1
ffff349c:	0afffffc 	beq	0xffff3494
ffff34a0:	e59c4060 	ldr	r4, [ip, #96]	; 0x60
ffff34a4:	e085610e 	add	r6, r5, lr, lsl #2
ffff34a8:	e58d400c 	str	r4, [sp, #12]
ffff34ac:	e59c4064 	ldr	r4, [ip, #100]	; 0x64
ffff34b0:	e58d4008 	str	r4, [sp, #8]
ffff34b4:	e59c4068 	ldr	r4, [ip, #104]	; 0x68
ffff34b8:	e58d4004 	str	r4, [sp, #4]
ffff34bc:	e59c406c 	ldr	r4, [ip, #108]	; 0x6c
ffff34c0:	e58d4000 	str	r4, [sp]
ffff34c4:	e28d4010 	add	r4, sp, #16
ffff34c8:	e5749001 	ldrb	r9, [r4, #-1]!
ffff34cc:	e1540001 	cmp	r4, r1
ffff34d0:	e4c69001 	strb	r9, [r6], #1
ffff34d4:	1afffffb 	bne	0xffff34c8
ffff34d8:	e28ee004 	add	lr, lr, #4
ffff34dc:	e2800010 	add	r0, r0, #16
ffff34e0:	eaffffd5 	b	0xffff343c
ffff34e4:	e28dd014 	add	sp, sp, #20
ffff34e8:	e8bd83f0 	pop	{r4, r5, r6, r7, r8, r9, pc}
ffff34ec:	c0067000 	andgt	r7, r6, r0
ffff34f0:	c00c6000 	andgt	r6, ip, r0
ffff34f4:	e59f3190 	ldr	r3, [pc, #400]	; 0xffff368c
ffff34f8:	e591c000 	ldr	ip, [r1]
ffff34fc:	e92d4037 	push	{r0, r1, r2, r4, r5, lr}
ffff3500:	e3e0e000 	mvn	lr, #0
ffff3504:	e5912008 	ldr	r2, [r1, #8]
ffff3508:	e3a05a01 	mov	r5, #4096	; 0x1000
ffff350c:	e7933100 	ldr	r3, [r3, r0, lsl #2]
ffff3510:	e5914004 	ldr	r4, [r1, #4]
ffff3514:	e6ef007c 	uxtb	r0, ip
ffff3518:	e583e044 	str	lr, [r3, #68]	; 0x44
ffff351c:	e3a0e000 	mov	lr, #0
ffff3520:	e58de004 	str	lr, [sp, #4]
ffff3524:	e382e202 	orr	lr, r2, #536870912	; 0x20000000
ffff3528:	e18ee000 	orr	lr, lr, r0
ffff352c:	e5835044 	str	r5, [r3, #68]	; 0x44
ffff3530:	e5834028 	str	r4, [r3, #40]	; 0x28
ffff3534:	e583e02c 	str	lr, [r3, #44]	; 0x2c
ffff3538:	e593002c 	ldr	r0, [r3, #44]	; 0x2c
ffff353c:	e3500000 	cmp	r0, #0
ffff3540:	aa000006 	bge	0xffff3560
ffff3544:	e59d0004 	ldr	r0, [sp, #4]
ffff3548:	e2800001 	add	r0, r0, #1
ffff354c:	e3500601 	cmp	r0, #1048576	; 0x100000
ffff3550:	e58d0004 	str	r0, [sp, #4]
ffff3554:	9afffff7 	bls	0xffff3538
ffff3558:	e3a00106 	mov	r0, #-2147483647	; 0x80000001
ffff355c:	ea000047 	b	0xffff3680
ffff3560:	e5930044 	ldr	r0, [r3, #68]	; 0x44
ffff3564:	e2100a01 	ands	r0, r0, #4096	; 0x1000
ffff3568:	1affffef 	bne	0xffff352c
ffff356c:	e202e901 	and	lr, r2, #16384	; 0x4000
ffff3570:	e58d0004 	str	r0, [sp, #4]
ffff3574:	e5930044 	ldr	r0, [r3, #68]	; 0x44
ffff3578:	e3100004 	tst	r0, #4
ffff357c:	1a00000e 	bne	0xffff35bc
ffff3580:	e59d0004 	ldr	r0, [sp, #4]
ffff3584:	e2800001 	add	r0, r0, #1
ffff3588:	e3500601 	cmp	r0, #1048576	; 0x100000
ffff358c:	e58d0004 	str	r0, [sp, #4]
ffff3590:	8a000037 	bhi	0xffff3674
ffff3594:	e35e0000 	cmp	lr, #0
ffff3598:	0afffff5 	beq	0xffff3574
ffff359c:	e5930044 	ldr	r0, [r3, #68]	; 0x44
ffff35a0:	e3100b01 	tst	r0, #1024	; 0x400
ffff35a4:	0afffff2 	beq	0xffff3574
ffff35a8:	e5930048 	ldr	r0, [r3, #72]	; 0x48
ffff35ac:	e3100004 	tst	r0, #4
ffff35b0:	1affffef 	bne	0xffff3574
ffff35b4:	e5930200 	ldr	r0, [r3, #512]	; 0x200
ffff35b8:	eafffffa 	b	0xffff35a8
ffff35bc:	e593e044 	ldr	lr, [r3, #68]	; 0x44
ffff35c0:	e3000142 	movw	r0, #322	; 0x142
ffff35c4:	e000000e 	and	r0, r0, lr
ffff35c8:	e3500000 	cmp	r0, #0
ffff35cc:	0a00000c 	beq	0xffff3604
ffff35d0:	e5930044 	ldr	r0, [r3, #68]	; 0x44
ffff35d4:	e593e044 	ldr	lr, [r3, #68]	; 0x44
ffff35d8:	e3100040 	tst	r0, #64	; 0x40
ffff35dc:	13a00112 	movne	r0, #-2147483644	; 0x80000004
ffff35e0:	03a00000 	moveq	r0, #0
ffff35e4:	e31e0002 	tst	lr, #2
ffff35e8:	e593e044 	ldr	lr, [r3, #68]	; 0x44
ffff35ec:	13800122 	orrne	r0, r0, #-2147483640	; 0x80000008
ffff35f0:	e31e0c01 	tst	lr, #256	; 0x100
ffff35f4:	13800142 	orrne	r0, r0, #-2147483632	; 0x80000010
ffff35f8:	1a000020 	bne	0xffff3680
ffff35fc:	e3500000 	cmp	r0, #0
ffff3600:	1a00001e 	bne	0xffff3680
ffff3604:	e3120040 	tst	r2, #64	; 0x40
ffff3608:	1a000001 	bne	0xffff3614
ffff360c:	e3a00000 	mov	r0, #0
ffff3610:	ea00001a 	b	0xffff3680
ffff3614:	e20220c0 	and	r2, r2, #192	; 0xc0
ffff3618:	e5930030 	ldr	r0, [r3, #48]	; 0x30
ffff361c:	e7e7c45c 	ubfx	ip, ip, #8, #8
ffff3620:	e35200c0 	cmp	r2, #192	; 0xc0
ffff3624:	05932034 	ldreq	r2, [r3, #52]	; 0x34
ffff3628:	e5810010 	str	r0, [r1, #16]
ffff362c:	05812014 	streq	r2, [r1, #20]
ffff3630:	05932038 	ldreq	r2, [r3, #56]	; 0x38
ffff3634:	05812018 	streq	r2, [r1, #24]
ffff3638:	0593203c 	ldreq	r2, [r3, #60]	; 0x3c
ffff363c:	0581201c 	streq	r2, [r1, #28]
ffff3640:	e35c0081 	cmp	ip, #129	; 0x81
ffff3644:	1afffff0 	bne	0xffff360c
ffff3648:	e3a02000 	mov	r2, #0
ffff364c:	e58d2004 	str	r2, [sp, #4]
ffff3650:	e59d2004 	ldr	r2, [sp, #4]
ffff3654:	e2822001 	add	r2, r2, #1
ffff3658:	e3520601 	cmp	r2, #1048576	; 0x100000
ffff365c:	e58d2004 	str	r2, [sp, #4]
ffff3660:	8a000005 	bhi	0xffff367c
ffff3664:	e5932048 	ldr	r2, [r3, #72]	; 0x48
ffff3668:	e3120c02 	tst	r2, #512	; 0x200
ffff366c:	1afffff7 	bne	0xffff3650
ffff3670:	eaffffe5 	b	0xffff360c
ffff3674:	e3a0010a 	mov	r0, #-2147483646	; 0x80000002
ffff3678:	ea000000 	b	0xffff3680
ffff367c:	e59f000c 	ldr	r0, [pc, #12]	; 0xffff3690
ffff3680:	e581000c 	str	r0, [r1, #12]
ffff3684:	e28dd00c 	add	sp, sp, #12
ffff3688:	e8bd8030 	pop	{r4, r5, pc}
ffff368c:	ffff5338 			; <UNDEFINED> instruction: 0xffff5338
ffff3690:	80000040 	andhi	r0, r0, r0, asr #32
ffff3694:	e92d4030 	push	{r4, r5, lr}
ffff3698:	e1a04000 	mov	r4, r0
ffff369c:	e24dd024 	sub	sp, sp, #36	; 0x24
ffff36a0:	e590000c 	ldr	r0, [r0, #12]
ffff36a4:	ebffff92 	bl	0xffff34f4
ffff36a8:	e2505000 	subs	r5, r0, #0
ffff36ac:	0a000008 	beq	0xffff36d4
ffff36b0:	e300310d 	movw	r3, #269	; 0x10d
ffff36b4:	e594000c 	ldr	r0, [r4, #12]
ffff36b8:	e1a0100d 	mov	r1, sp
ffff36bc:	e58d3000 	str	r3, [sp]
ffff36c0:	e5943004 	ldr	r3, [r4, #4]
ffff36c4:	e58d3004 	str	r3, [sp, #4]
ffff36c8:	e59f3010 	ldr	r3, [pc, #16]	; 0xffff36e0
ffff36cc:	e58d3008 	str	r3, [sp, #8]
ffff36d0:	ebffff87 	bl	0xffff34f4
ffff36d4:	e1a00005 	mov	r0, r5
ffff36d8:	e28dd024 	add	sp, sp, #36	; 0x24
ffff36dc:	e8bd8030 	pop	{r4, r5, pc}
ffff36e0:	80000140 	andhi	r0, r0, r0, asr #2
ffff36e4:	e92d4070 	push	{r4, r5, r6, lr}
ffff36e8:	e3003137 	movw	r3, #311	; 0x137
ffff36ec:	e24dd020 	sub	sp, sp, #32
ffff36f0:	e1a04000 	mov	r4, r0
ffff36f4:	e1a06001 	mov	r6, r1
ffff36f8:	e1a0100d 	mov	r1, sp
ffff36fc:	e58d3000 	str	r3, [sp]
ffff3700:	e5903004 	ldr	r3, [r0, #4]
ffff3704:	e590000c 	ldr	r0, [r0, #12]
ffff3708:	e58d3004 	str	r3, [sp, #4]
ffff370c:	e59f3024 	ldr	r3, [pc, #36]	; 0xffff3738
ffff3710:	e58d3008 	str	r3, [sp, #8]
ffff3714:	ebffff76 	bl	0xffff34f4
ffff3718:	e2505000 	subs	r5, r0, #0
ffff371c:	1a000002 	bne	0xffff372c
ffff3720:	e1a00004 	mov	r0, r4
ffff3724:	e1a01006 	mov	r1, r6
ffff3728:	ebffffd9 	bl	0xffff3694
ffff372c:	e1a00005 	mov	r0, r5
ffff3730:	e28dd020 	add	sp, sp, #32
ffff3734:	e8bd8070 	pop	{r4, r5, r6, pc}
ffff3738:	80002140 	andhi	r2, r0, r0, asr #2
ffff373c:	e92d41f0 	push	{r4, r5, r6, r7, r8, lr}
ffff3740:	e1a04000 	mov	r4, r0
ffff3744:	e5900000 	ldr	r0, [r0]
ffff3748:	e3a05001 	mov	r5, #1
ffff374c:	e3a07002 	mov	r7, #2
ffff3750:	ebfff935 	bl	0xffff1c2c
ffff3754:	e1a06000 	mov	r6, r0
ffff3758:	e5847008 	str	r7, [r4, #8]
ffff375c:	e994000a 	ldmib	r4, {r1, r3}
ffff3760:	e1a00006 	mov	r0, r6
ffff3764:	e0010391 	mul	r1, r1, r3
ffff3768:	ebfff6c9 	bl	0xffff1294
ffff376c:	e994000a 	ldmib	r4, {r1, r3}
ffff3770:	e584000c 	str	r0, [r4, #12]
ffff3774:	e0010391 	mul	r1, r1, r3
ffff3778:	e1560001 	cmp	r6, r1
ffff377c:	82802002 	addhi	r2, r0, #2
ffff3780:	8584200c 	strhi	r2, [r4, #12]
ffff3784:	e594100c 	ldr	r1, [r4, #12]
ffff3788:	e35100fe 	cmp	r1, #254	; 0xfe
ffff378c:	82833002 	addhi	r3, r3, #2
ffff3790:	85843008 	strhi	r3, [r4, #8]
ffff3794:	8afffff0 	bhi	0xffff375c
ffff3798:	e0010391 	mul	r1, r1, r3
ffff379c:	e1a00006 	mov	r0, r6
ffff37a0:	ebfff6bb 	bl	0xffff1294
ffff37a4:	e5943004 	ldr	r3, [r4, #4]
ffff37a8:	e1500003 	cmp	r0, r3
ffff37ac:	9a000004 	bls	0xffff37c4
ffff37b0:	e3550000 	cmp	r5, #0
ffff37b4:	13a05000 	movne	r5, #0
ffff37b8:	1affffe6 	bne	0xffff3758
ffff37bc:	e1a00005 	mov	r0, r5
ffff37c0:	e8bd81f0 	pop	{r4, r5, r6, r7, r8, pc}
ffff37c4:	e3a00001 	mov	r0, #1
ffff37c8:	e8bd81f0 	pop	{r4, r5, r6, r7, r8, pc}
ffff37cc:	e59f3150 	ldr	r3, [pc, #336]	; 0xffff3924
ffff37d0:	e92d4070 	push	{r4, r5, r6, lr}
ffff37d4:	e24dd018 	sub	sp, sp, #24
ffff37d8:	e1a06001 	mov	r6, r1
ffff37dc:	e7934100 	ldr	r4, [r3, r0, lsl #2]
ffff37e0:	e0833100 	add	r3, r3, r0, lsl #2
ffff37e4:	e28d0008 	add	r0, sp, #8
ffff37e8:	e593500c 	ldr	r5, [r3, #12]
ffff37ec:	e5943010 	ldr	r3, [r4, #16]
ffff37f0:	e3c33001 	bic	r3, r3, #1
ffff37f4:	e5843010 	str	r3, [r4, #16]
ffff37f8:	e5943010 	ldr	r3, [r4, #16]
ffff37fc:	e3833801 	orr	r3, r3, #65536	; 0x10000
ffff3800:	e5843010 	str	r3, [r4, #16]
ffff3804:	e3a0300a 	mov	r3, #10
ffff3808:	e5853000 	str	r3, [r5]
ffff380c:	e3a03002 	mov	r3, #2
ffff3810:	e58d200c 	str	r2, [sp, #12]
ffff3814:	e58d3008 	str	r3, [sp, #8]
ffff3818:	ebffffc7 	bl	0xffff373c
ffff381c:	e3500001 	cmp	r0, #1
ffff3820:	1a00000b 	bne	0xffff3854
ffff3824:	e5953004 	ldr	r3, [r5, #4]
ffff3828:	e59d2008 	ldr	r2, [sp, #8]
ffff382c:	e3c33d7f 	bic	r3, r3, #8128	; 0x1fc0
ffff3830:	e3c3303c 	bic	r3, r3, #60	; 0x3c
ffff3834:	e1833102 	orr	r3, r3, r2, lsl #2
ffff3838:	e59d2014 	ldr	r2, [sp, #20]
ffff383c:	e2422001 	sub	r2, r2, #1
ffff3840:	e1833282 	orr	r3, r3, r2, lsl #5
ffff3844:	e5853004 	str	r3, [r5, #4]
ffff3848:	e59d3010 	ldr	r3, [sp, #16]
ffff384c:	e1a030a3 	lsr	r3, r3, #1
ffff3850:	e5843008 	str	r3, [r4, #8]
ffff3854:	e5953000 	ldr	r3, [r5]
ffff3858:	e3a00000 	mov	r0, #0
ffff385c:	e3a02a01 	mov	r2, #4096	; 0x1000
ffff3860:	e59f10c0 	ldr	r1, [pc, #192]	; 0xffff3928
ffff3864:	e3833004 	orr	r3, r3, #4
ffff3868:	e5853000 	str	r3, [r5]
ffff386c:	e5943010 	ldr	r3, [r4, #16]
ffff3870:	e3c33801 	bic	r3, r3, #65536	; 0x10000
ffff3874:	e5843010 	str	r3, [r4, #16]
ffff3878:	e584102c 	str	r1, [r4, #44]	; 0x2c
ffff387c:	e58d0004 	str	r0, [sp, #4]
ffff3880:	e594302c 	ldr	r3, [r4, #44]	; 0x2c
ffff3884:	e3530000 	cmp	r3, #0
ffff3888:	aa000005 	bge	0xffff38a4
ffff388c:	e59d3004 	ldr	r3, [sp, #4]
ffff3890:	e2833001 	add	r3, r3, #1
ffff3894:	e3530601 	cmp	r3, #1048576	; 0x100000
ffff3898:	e58d3004 	str	r3, [sp, #4]
ffff389c:	9afffff7 	bls	0xffff3880
ffff38a0:	ea00001c 	b	0xffff3918
ffff38a4:	e5943044 	ldr	r3, [r4, #68]	; 0x44
ffff38a8:	e2133a01 	ands	r3, r3, #4096	; 0x1000
ffff38ac:	15842044 	strne	r2, [r4, #68]	; 0x44
ffff38b0:	1afffff0 	bne	0xffff3878
ffff38b4:	e3560000 	cmp	r6, #0
ffff38b8:	1a000001 	bne	0xffff38c4
ffff38bc:	e3a00001 	mov	r0, #1
ffff38c0:	ea000015 	b	0xffff391c
ffff38c4:	e5942010 	ldr	r2, [r4, #16]
ffff38c8:	e3a01a01 	mov	r1, #4096	; 0x1000
ffff38cc:	e59f0054 	ldr	r0, [pc, #84]	; 0xffff3928
ffff38d0:	e3822001 	orr	r2, r2, #1
ffff38d4:	e5842010 	str	r2, [r4, #16]
ffff38d8:	e584002c 	str	r0, [r4, #44]	; 0x2c
ffff38dc:	e58d3004 	str	r3, [sp, #4]
ffff38e0:	e594202c 	ldr	r2, [r4, #44]	; 0x2c
ffff38e4:	e3520000 	cmp	r2, #0
ffff38e8:	aa000005 	bge	0xffff3904
ffff38ec:	e59d2004 	ldr	r2, [sp, #4]
ffff38f0:	e2822001 	add	r2, r2, #1
ffff38f4:	e3520601 	cmp	r2, #1048576	; 0x100000
ffff38f8:	e58d2004 	str	r2, [sp, #4]
ffff38fc:	9afffff7 	bls	0xffff38e0
ffff3900:	ea000004 	b	0xffff3918
ffff3904:	e5942044 	ldr	r2, [r4, #68]	; 0x44
ffff3908:	e3120a01 	tst	r2, #4096	; 0x1000
ffff390c:	0affffea 	beq	0xffff38bc
ffff3910:	e5841044 	str	r1, [r4, #68]	; 0x44
ffff3914:	eaffffef 	b	0xffff38d8
ffff3918:	e3a00000 	mov	r0, #0
ffff391c:	e28dd018 	add	sp, sp, #24
ffff3920:	e8bd8070 	pop	{r4, r5, r6, pc}
ffff3924:	ffff5338 			; <UNDEFINED> instruction: 0xffff5338
ffff3928:	80204000 	eorhi	r4, r0, r0
ffff392c:	e92d40f0 	push	{r4, r5, r6, r7, lr}
ffff3930:	e3a02002 	mov	r2, #2
ffff3934:	e590300c 	ldr	r3, [r0, #12]
ffff3938:	e24dd014 	sub	sp, sp, #20
ffff393c:	e1a07000 	mov	r7, r0
ffff3940:	e59f5108 	ldr	r5, [pc, #264]	; 0xffff3a50
ffff3944:	e1a0000d 	mov	r0, sp
ffff3948:	e7954103 	ldr	r4, [r5, r3, lsl #2]
ffff394c:	e0853103 	add	r3, r5, r3, lsl #2
ffff3950:	e593600c 	ldr	r6, [r3, #12]
ffff3954:	e59f30f8 	ldr	r3, [pc, #248]	; 0xffff3a54
ffff3958:	e88d000c 	stm	sp, {r2, r3}
ffff395c:	ebffff76 	bl	0xffff373c
ffff3960:	e3500000 	cmp	r0, #0
ffff3964:	1a000001 	bne	0xffff3970
ffff3968:	e59f00e8 	ldr	r0, [pc, #232]	; 0xffff3a58
ffff396c:	ebfff838 	bl	0xffff1a54
ffff3970:	e3a0300a 	mov	r3, #10
ffff3974:	e59d2000 	ldr	r2, [sp]
ffff3978:	e3a01001 	mov	r1, #1
ffff397c:	e5863000 	str	r3, [r6]
ffff3980:	e5963004 	ldr	r3, [r6, #4]
ffff3984:	e3c33d7f 	bic	r3, r3, #8128	; 0x1fc0
ffff3988:	e3c3303c 	bic	r3, r3, #60	; 0x3c
ffff398c:	e1833102 	orr	r3, r3, r2, lsl #2
ffff3990:	e59d200c 	ldr	r2, [sp, #12]
ffff3994:	e2422001 	sub	r2, r2, #1
ffff3998:	e1833282 	orr	r3, r3, r2, lsl #5
ffff399c:	e5863004 	str	r3, [r6, #4]
ffff39a0:	e5963000 	ldr	r3, [r6]
ffff39a4:	e3833004 	orr	r3, r3, #4
ffff39a8:	e5863000 	str	r3, [r6]
ffff39ac:	e597300c 	ldr	r3, [r7, #12]
ffff39b0:	e0853103 	add	r3, r5, r3, lsl #2
ffff39b4:	e5930018 	ldr	r0, [r3, #24]
ffff39b8:	ebfff589 	bl	0xffff0fe4
ffff39bc:	e597300c 	ldr	r3, [r7, #12]
ffff39c0:	e3a01000 	mov	r1, #0
ffff39c4:	e0855103 	add	r5, r5, r3, lsl #2
ffff39c8:	e5950018 	ldr	r0, [r5, #24]
ffff39cc:	ebfff584 	bl	0xffff0fe4
ffff39d0:	e3a03000 	mov	r3, #0
ffff39d4:	e3a02801 	mov	r2, #65536	; 0x10000
ffff39d8:	e5843004 	str	r3, [r4, #4]
ffff39dc:	e5842010 	str	r2, [r4, #16]
ffff39e0:	e3a02802 	mov	r2, #131072	; 0x20000
ffff39e4:	e5842114 	str	r2, [r4, #276]	; 0x114
ffff39e8:	e584300c 	str	r3, [r4, #12]
ffff39ec:	e59d300c 	ldr	r3, [sp, #12]
ffff39f0:	e1a030a3 	lsr	r3, r3, #1
ffff39f4:	e5843008 	str	r3, [r4, #8]
ffff39f8:	e5943000 	ldr	r3, [r4]
ffff39fc:	e3c33060 	bic	r3, r3, #96	; 0x60
ffff3a00:	e5843000 	str	r3, [r4]
ffff3a04:	e3a03007 	mov	r3, #7
ffff3a08:	e5843000 	str	r3, [r4]
ffff3a0c:	e5943000 	ldr	r3, [r4]
ffff3a10:	e2133007 	ands	r3, r3, #7
ffff3a14:	1afffffc 	bne	0xffff3a0c
ffff3a18:	e3a00001 	mov	r0, #1
ffff3a1c:	e3e0209b 	mvn	r2, #155	; 0x9b
ffff3a20:	e5840004 	str	r0, [r4, #4]
ffff3a24:	e5842014 	str	r2, [r4, #20]
ffff3a28:	e3a02c02 	mov	r2, #512	; 0x200
ffff3a2c:	e5843018 	str	r3, [r4, #24]
ffff3a30:	e584201c 	str	r2, [r4, #28]
ffff3a34:	e59f2020 	ldr	r2, [pc, #32]	; 0xffff3a5c
ffff3a38:	e584204c 	str	r2, [r4, #76]	; 0x4c
ffff3a3c:	e5843024 	str	r3, [r4, #36]	; 0x24
ffff3a40:	e3e03000 	mvn	r3, #0
ffff3a44:	e5843044 	str	r3, [r4, #68]	; 0x44
ffff3a48:	e28dd014 	add	sp, sp, #20
ffff3a4c:	e8bd80f0 	pop	{r4, r5, r6, r7, pc}
ffff3a50:	ffff5338 			; <UNDEFINED> instruction: 0xffff5338
ffff3a54:	017d7840 	cmneq	sp, r0, asr #16
ffff3a58:	ffff535c 			; <UNDEFINED> instruction: 0xffff535c
ffff3a5c:	00070008 	andeq	r0, r7, r8
ffff3a60:	e590000c 	ldr	r0, [r0, #12]
ffff3a64:	e3e02000 	mvn	r2, #0
ffff3a68:	e59f303c 	ldr	r3, [pc, #60]	; 0xffff3aac
ffff3a6c:	e7931100 	ldr	r1, [r3, r0, lsl #2]
ffff3a70:	e5812044 	str	r2, [r1, #68]	; 0x44
ffff3a74:	e3a02007 	mov	r2, #7
ffff3a78:	e5812000 	str	r2, [r1]
ffff3a7c:	e5912000 	ldr	r2, [r1]
ffff3a80:	e2122007 	ands	r2, r2, #7
ffff3a84:	1afffffc 	bne	0xffff3a7c
ffff3a88:	e0833100 	add	r3, r3, r0, lsl #2
ffff3a8c:	e92d4010 	push	{r4, lr}
ffff3a90:	e593100c 	ldr	r1, [r3, #12]
ffff3a94:	e5930018 	ldr	r0, [r3, #24]
ffff3a98:	e5812000 	str	r2, [r1]
ffff3a9c:	e3a01001 	mov	r1, #1
ffff3aa0:	ebfff54f 	bl	0xffff0fe4
ffff3aa4:	e3a00001 	mov	r0, #1
ffff3aa8:	e8bd8010 	pop	{r4, pc}
ffff3aac:	ffff5338 			; <UNDEFINED> instruction: 0xffff5338
ffff3ab0:	e92d47f0 	push	{r4, r5, r6, r7, r8, r9, sl, lr}
ffff3ab4:	e1a04000 	mov	r4, r0
ffff3ab8:	e59f630c 	ldr	r6, [pc, #780]	; 0xffff3dcc
ffff3abc:	e24dd020 	sub	sp, sp, #32
ffff3ac0:	e3a01001 	mov	r1, #1
ffff3ac4:	e590000c 	ldr	r0, [r0, #12]
ffff3ac8:	e59f2300 	ldr	r2, [pc, #768]	; 0xffff3dd0
ffff3acc:	e7967100 	ldr	r7, [r6, r0, lsl #2]
ffff3ad0:	ebffff3d 	bl	0xffff37cc
ffff3ad4:	e3500000 	cmp	r0, #0
ffff3ad8:	1a000003 	bne	0xffff3aec
ffff3adc:	e59f02f0 	ldr	r0, [pc, #752]	; 0xffff3dd4
ffff3ae0:	e3a04000 	mov	r4, #0
ffff3ae4:	ebfff7da 	bl	0xffff1a54
ffff3ae8:	ea0000b4 	b	0xffff3dc0
ffff3aec:	e59f32e4 	ldr	r3, [pc, #740]	; 0xffff3dd8
ffff3af0:	e3a05000 	mov	r5, #0
ffff3af4:	e1a0100d 	mov	r1, sp
ffff3af8:	e1a00004 	mov	r0, r4
ffff3afc:	e5875018 	str	r5, [r7, #24]
ffff3b00:	e30071aa 	movw	r7, #426	; 0x1aa
ffff3b04:	e5845004 	str	r5, [r4, #4]
ffff3b08:	e58d3008 	str	r3, [sp, #8]
ffff3b0c:	e58d5000 	str	r5, [sp]
ffff3b10:	e58d5004 	str	r5, [sp, #4]
ffff3b14:	ebfffede 	bl	0xffff3694
ffff3b18:	e59fe2bc 	ldr	lr, [pc, #700]	; 0xffff3ddc
ffff3b1c:	e3003708 	movw	r3, #1800	; 0x708
ffff3b20:	e1a0100d 	mov	r1, sp
ffff3b24:	e594000c 	ldr	r0, [r4, #12]
ffff3b28:	e88d4088 	stm	sp, {r3, r7, lr}
ffff3b2c:	ebfffe70 	bl	0xffff34f4
ffff3b30:	e1500005 	cmp	r0, r5
ffff3b34:	1a000003 	bne	0xffff3b48
ffff3b38:	e59d3010 	ldr	r3, [sp, #16]
ffff3b3c:	e1530007 	cmp	r3, r7
ffff3b40:	1affffe5 	bne	0xffff3adc
ffff3b44:	e3a05101 	mov	r5, #1073741824	; 0x40000000
ffff3b48:	e3003137 	movw	r3, #311	; 0x137
ffff3b4c:	e594000c 	ldr	r0, [r4, #12]
ffff3b50:	e1a0100d 	mov	r1, sp
ffff3b54:	e58d3000 	str	r3, [sp]
ffff3b58:	e5943004 	ldr	r3, [r4, #4]
ffff3b5c:	e58d3004 	str	r3, [sp, #4]
ffff3b60:	e59f3274 	ldr	r3, [pc, #628]	; 0xffff3ddc
ffff3b64:	e58d3008 	str	r3, [sp, #8]
ffff3b68:	ebfffe61 	bl	0xffff34f4
ffff3b6c:	e3500000 	cmp	r0, #0
ffff3b70:	1a00001a 	bne	0xffff3be0
ffff3b74:	e59f3264 	ldr	r3, [pc, #612]	; 0xffff3de0
ffff3b78:	e3855583 	orr	r5, r5, #549453824	; 0x20c00000
ffff3b7c:	e1a0100d 	mov	r1, sp
ffff3b80:	e385570f 	orr	r5, r5, #3932160	; 0x3c0000
ffff3b84:	e594000c 	ldr	r0, [r4, #12]
ffff3b88:	e58d5004 	str	r5, [sp, #4]
ffff3b8c:	e58d3000 	str	r3, [sp]
ffff3b90:	e59f324c 	ldr	r3, [pc, #588]	; 0xffff3de4
ffff3b94:	e58d3008 	str	r3, [sp, #8]
ffff3b98:	ebfffe55 	bl	0xffff34f4
ffff3b9c:	e3500000 	cmp	r0, #0
ffff3ba0:	059f5240 	ldreq	r5, [pc, #576]	; 0xffff3de8
ffff3ba4:	1affffcc 	bne	0xffff3adc
ffff3ba8:	e59d3010 	ldr	r3, [sp, #16]
ffff3bac:	e3530000 	cmp	r3, #0
ffff3bb0:	ba000007 	blt	0xffff3bd4
ffff3bb4:	e1a00004 	mov	r0, r4
ffff3bb8:	e1a0100d 	mov	r1, sp
ffff3bbc:	ebfffec8 	bl	0xffff36e4
ffff3bc0:	e3500000 	cmp	r0, #0
ffff3bc4:	1affffc4 	bne	0xffff3adc
ffff3bc8:	e2555001 	subs	r5, r5, #1
ffff3bcc:	1afffff5 	bne	0xffff3ba8
ffff3bd0:	eaffffc1 	b	0xffff3adc
ffff3bd4:	e3a05001 	mov	r5, #1
ffff3bd8:	e3a07000 	mov	r7, #0
ffff3bdc:	ea000018 	b	0xffff3c44
ffff3be0:	e3a03000 	mov	r3, #0
ffff3be4:	e59f71fc 	ldr	r7, [pc, #508]	; 0xffff3de8
ffff3be8:	e1a00004 	mov	r0, r4
ffff3bec:	e59f91f8 	ldr	r9, [pc, #504]	; 0xffff3dec
ffff3bf0:	e1a0100d 	mov	r1, sp
ffff3bf4:	e3008301 	movw	r8, #769	; 0x301
ffff3bf8:	e58d3000 	str	r3, [sp]
ffff3bfc:	e59fa1e0 	ldr	sl, [pc, #480]	; 0xffff3de4
ffff3c00:	e58d3004 	str	r3, [sp, #4]
ffff3c04:	e59f31cc 	ldr	r3, [pc, #460]	; 0xffff3dd8
ffff3c08:	e58d3008 	str	r3, [sp, #8]
ffff3c0c:	ebfffea0 	bl	0xffff3694
ffff3c10:	e1a00004 	mov	r0, r4
ffff3c14:	e1a0100d 	mov	r1, sp
ffff3c18:	e88d0700 	stm	sp, {r8, r9, sl}
ffff3c1c:	ebfffe9c 	bl	0xffff3694
ffff3c20:	e3500000 	cmp	r0, #0
ffff3c24:	1affffac 	bne	0xffff3adc
ffff3c28:	e2577001 	subs	r7, r7, #1
ffff3c2c:	0affffaa 	beq	0xffff3adc
ffff3c30:	e59d3010 	ldr	r3, [sp, #16]
ffff3c34:	e3530000 	cmp	r3, #0
ffff3c38:	aafffff4 	bge	0xffff3c10
ffff3c3c:	e1a05000 	mov	r5, r0
ffff3c40:	e3a07802 	mov	r7, #131072	; 0x20000
ffff3c44:	e59d3010 	ldr	r3, [sp, #16]
ffff3c48:	e3000202 	movw	r0, #514	; 0x202
ffff3c4c:	e1a0100d 	mov	r1, sp
ffff3c50:	e59fc198 	ldr	ip, [pc, #408]	; 0xffff3df0
ffff3c54:	e7e03f53 	ubfx	r3, r3, #30, #1
ffff3c58:	e5843008 	str	r3, [r4, #8]
ffff3c5c:	e3a03000 	mov	r3, #0
ffff3c60:	e88d1009 	stm	sp, {r0, r3, ip}
ffff3c64:	e1a00004 	mov	r0, r4
ffff3c68:	ebfffe89 	bl	0xffff3694
ffff3c6c:	e3500000 	cmp	r0, #0
ffff3c70:	1affff99 	bne	0xffff3adc
ffff3c74:	e3550001 	cmp	r5, #1
ffff3c78:	e3002103 	movw	r2, #259	; 0x103
ffff3c7c:	e3003603 	movw	r3, #1539	; 0x603
ffff3c80:	11a03002 	movne	r3, r2
ffff3c84:	e1a00004 	mov	r0, r4
ffff3c88:	e1a0100d 	mov	r1, sp
ffff3c8c:	e88d0088 	stm	sp, {r3, r7}
ffff3c90:	e59f3144 	ldr	r3, [pc, #324]	; 0xffff3ddc
ffff3c94:	e58d3008 	str	r3, [sp, #8]
ffff3c98:	ebfffe7d 	bl	0xffff3694
ffff3c9c:	e3500000 	cmp	r0, #0
ffff3ca0:	1affff8d 	bne	0xffff3adc
ffff3ca4:	e3550001 	cmp	r5, #1
ffff3ca8:	e5845000 	str	r5, [r4]
ffff3cac:	e594000c 	ldr	r0, [r4, #12]
ffff3cb0:	01dd31b2 	ldrheq	r3, [sp, #18]
ffff3cb4:	e3a01001 	mov	r1, #1
ffff3cb8:	15847004 	strne	r7, [r4, #4]
ffff3cbc:	e59f2130 	ldr	r2, [pc, #304]	; 0xffff3df4
ffff3cc0:	01a03803 	lsleq	r3, r3, #16
ffff3cc4:	05843004 	streq	r3, [r4, #4]
ffff3cc8:	ebfffebf 	bl	0xffff37cc
ffff3ccc:	e3500000 	cmp	r0, #0
ffff3cd0:	1a000001 	bne	0xffff3cdc
ffff3cd4:	e3a04000 	mov	r4, #0
ffff3cd8:	ea000038 	b	0xffff3dc0
ffff3cdc:	e3083107 	movw	r3, #33031	; 0x8107
ffff3ce0:	e59f50f4 	ldr	r5, [pc, #244]	; 0xffff3ddc
ffff3ce4:	e1a00004 	mov	r0, r4
ffff3ce8:	e1a0100d 	mov	r1, sp
ffff3cec:	e58d3000 	str	r3, [sp]
ffff3cf0:	e5943004 	ldr	r3, [r4, #4]
ffff3cf4:	e58d5008 	str	r5, [sp, #8]
ffff3cf8:	e58d3004 	str	r3, [sp, #4]
ffff3cfc:	ebfffe64 	bl	0xffff3694
ffff3d00:	e3500000 	cmp	r0, #0
ffff3d04:	1afffff2 	bne	0xffff3cd4
ffff3d08:	e5943000 	ldr	r3, [r4]
ffff3d0c:	e3530001 	cmp	r3, #1
ffff3d10:	1a000005 	bne	0xffff3d2c
ffff3d14:	e59f30dc 	ldr	r3, [pc, #220]	; 0xffff3df8
ffff3d18:	e98d0021 	stmib	sp, {r0, r5}
ffff3d1c:	e1a0100d 	mov	r1, sp
ffff3d20:	e1a00004 	mov	r0, r4
ffff3d24:	e58d3000 	str	r3, [sp]
ffff3d28:	ebfffe6d 	bl	0xffff36e4
ffff3d2c:	e594300c 	ldr	r3, [r4, #12]
ffff3d30:	e3a07c02 	mov	r7, #512	; 0x200
ffff3d34:	e1a00004 	mov	r0, r4
ffff3d38:	e59f509c 	ldr	r5, [pc, #156]	; 0xffff3ddc
ffff3d3c:	e1a0100d 	mov	r1, sp
ffff3d40:	e7968103 	ldr	r8, [r6, r3, lsl #2]
ffff3d44:	e3a03e11 	mov	r3, #272	; 0x110
ffff3d48:	e58d5008 	str	r5, [sp, #8]
ffff3d4c:	e88d0088 	stm	sp, {r3, r7}
ffff3d50:	ebfffe4f 	bl	0xffff3694
ffff3d54:	e3500000 	cmp	r0, #0
ffff3d58:	1affffdd 	bne	0xffff3cd4
ffff3d5c:	e594300c 	ldr	r3, [r4, #12]
ffff3d60:	e588701c 	str	r7, [r8, #28]
ffff3d64:	e7966103 	ldr	r6, [r6, r3, lsl #2]
ffff3d68:	e5943000 	ldr	r3, [r4]
ffff3d6c:	e3530001 	cmp	r3, #1
ffff3d70:	1a000007 	bne	0xffff3d94
ffff3d74:	e59f1080 	ldr	r1, [pc, #128]	; 0xffff3dfc
ffff3d78:	e3a03002 	mov	r3, #2
ffff3d7c:	e1a00004 	mov	r0, r4
ffff3d80:	e58d5008 	str	r5, [sp, #8]
ffff3d84:	e88d000a 	stm	sp, {r1, r3}
ffff3d88:	e1a0100d 	mov	r1, sp
ffff3d8c:	ebfffe54 	bl	0xffff36e4
ffff3d90:	ea000006 	b	0xffff3db0
ffff3d94:	e59f3064 	ldr	r3, [pc, #100]	; 0xffff3e00
ffff3d98:	e3082106 	movw	r2, #33030	; 0x8106
ffff3d9c:	e1a00004 	mov	r0, r4
ffff3da0:	e1a0100d 	mov	r1, sp
ffff3da4:	e58d5008 	str	r5, [sp, #8]
ffff3da8:	e88d000c 	stm	sp, {r2, r3}
ffff3dac:	ebfffe38 	bl	0xffff3694
ffff3db0:	e3500000 	cmp	r0, #0
ffff3db4:	e3a04001 	mov	r4, #1
ffff3db8:	03a03001 	moveq	r3, #1
ffff3dbc:	05863018 	streq	r3, [r6, #24]
ffff3dc0:	e1a00004 	mov	r0, r4
ffff3dc4:	e28dd020 	add	sp, sp, #32
ffff3dc8:	e8bd87f0 	pop	{r4, r5, r6, r7, r8, r9, sl, pc}
ffff3dcc:	ffff5338 			; <UNDEFINED> instruction: 0xffff5338
ffff3dd0:	00061a80 	andeq	r1, r6, r0, lsl #21
ffff3dd4:	ffff5375 			; <UNDEFINED> instruction: 0xffff5375
ffff3dd8:	8000c000 	andhi	ip, r0, r0
ffff3ddc:	80002140 	andhi	r2, r0, r0, asr #2
ffff3de0:	01370329 	teqeq	r7, r9, lsr #6
ffff3de4:	80002040 	andhi	r2, r0, r0, asr #32
ffff3de8:	00100001 	andseq	r0, r0, r1
ffff3dec:	40fc0000 	rscsmi	r0, ip, r0
ffff3df0:	800021c0 	andhi	r2, r0, r0, asr #3
ffff3df4:	017d7840 	cmneq	sp, r0, asr #16
ffff3df8:	0137012a 	teqeq	r7, sl, lsr #2
ffff3dfc:	01370106 	teqeq	r7, r6, lsl #2
ffff3e00:	03b70100 			; <UNDEFINED> instruction: 0x03b70100
ffff3e04:	e92d4010 	push	{r4, lr}
ffff3e08:	e3a01000 	mov	r1, #0
ffff3e0c:	e59f200c 	ldr	r2, [pc, #12]	; 0xffff3e20
ffff3e10:	e590000c 	ldr	r0, [r0, #12]
ffff3e14:	ebfffe6c 	bl	0xffff37cc
ffff3e18:	e3a00001 	mov	r0, #1
ffff3e1c:	e8bd8010 	pop	{r4, pc}
ffff3e20:	00061a80 	andeq	r1, r6, r0, lsl #21
ffff3e24:	e92d4ff0 	push	{r4, r5, r6, r7, r8, r9, sl, fp, lr}
ffff3e28:	e1a08003 	mov	r8, r3
ffff3e2c:	e59fa1d0 	ldr	sl, [pc, #464]	; 0xffff4004
ffff3e30:	e24dd024 	sub	sp, sp, #36	; 0x24
ffff3e34:	e1a04000 	mov	r4, r0
ffff3e38:	e590300c 	ldr	r3, [r0, #12]
ffff3e3c:	e1a09001 	mov	r9, r1
ffff3e40:	e1a07002 	mov	r7, r2
ffff3e44:	e79a5103 	ldr	r5, [sl, r3, lsl #2]
ffff3e48:	e5953048 	ldr	r3, [r5, #72]	; 0x48
ffff3e4c:	e3130c06 	tst	r3, #1536	; 0x600
ffff3e50:	1afffffc 	bne	0xffff3e48
ffff3e54:	e59fb1ac 	ldr	fp, [pc, #428]	; 0xffff4008
ffff3e58:	e300610d 	movw	r6, #269	; 0x10d
ffff3e5c:	e5943004 	ldr	r3, [r4, #4]
ffff3e60:	e1a00004 	mov	r0, r4
ffff3e64:	e1a0100d 	mov	r1, sp
ffff3e68:	e58d6000 	str	r6, [sp]
ffff3e6c:	e98d0808 	stmib	sp, {r3, fp}
ffff3e70:	ebfffe07 	bl	0xffff3694
ffff3e74:	e3500000 	cmp	r0, #0
ffff3e78:	1a00004c 	bne	0xffff3fb0
ffff3e7c:	e59d3010 	ldr	r3, [sp, #16]
ffff3e80:	e3130c01 	tst	r3, #256	; 0x100
ffff3e84:	0afffff4 	beq	0xffff3e5c
ffff3e88:	e7e334d3 	ubfx	r3, r3, #9, #4
ffff3e8c:	e3530004 	cmp	r3, #4
ffff3e90:	1afffff1 	bne	0xffff3e5c
ffff3e94:	e3570001 	cmp	r7, #1
ffff3e98:	e1a06487 	lsl	r6, r7, #9
ffff3e9c:	83003112 	movwhi	r3, #274	; 0x112
ffff3ea0:	93003111 	movwls	r3, #273	; 0x111
ffff3ea4:	e1a0100d 	mov	r1, sp
ffff3ea8:	858d3000 	strhi	r3, [sp]
ffff3eac:	859f3158 	ldrhi	r3, [pc, #344]	; 0xffff400c
ffff3eb0:	e1a00004 	mov	r0, r4
ffff3eb4:	958d3000 	strls	r3, [sp]
ffff3eb8:	959f3150 	ldrls	r3, [pc, #336]	; 0xffff4010
ffff3ebc:	e5856020 	str	r6, [r5, #32]
ffff3ec0:	e58d3008 	str	r3, [sp, #8]
ffff3ec4:	e5943008 	ldr	r3, [r4, #8]
ffff3ec8:	e3530000 	cmp	r3, #0
ffff3ecc:	01a09489 	lsleq	r9, r9, #9
ffff3ed0:	e58d9004 	str	r9, [sp, #4]
ffff3ed4:	ebfffdee 	bl	0xffff3694
ffff3ed8:	e3500000 	cmp	r0, #0
ffff3edc:	0594300c 	ldreq	r3, [r4, #12]
ffff3ee0:	079a1103 	ldreq	r1, [sl, r3, lsl #2]
ffff3ee4:	03a03020 	moveq	r3, #32
ffff3ee8:	1a000030 	bne	0xffff3fb0
ffff3eec:	e3560000 	cmp	r6, #0
ffff3ef0:	0a000026 	beq	0xffff3f90
ffff3ef4:	e5912044 	ldr	r2, [r1, #68]	; 0x44
ffff3ef8:	e3120020 	tst	r2, #32
ffff3efc:	1a000002 	bne	0xffff3f0c
ffff3f00:	e5912044 	ldr	r2, [r1, #68]	; 0x44
ffff3f04:	e3120008 	tst	r2, #8
ffff3f08:	0a000012 	beq	0xffff3f58
ffff3f0c:	e3a02601 	mov	r2, #1048576	; 0x100000
ffff3f10:	e5910048 	ldr	r0, [r1, #72]	; 0x48
ffff3f14:	e3100004 	tst	r0, #4
ffff3f18:	0a000002 	beq	0xffff3f28
ffff3f1c:	e2522001 	subs	r2, r2, #1
ffff3f20:	2afffffa 	bcs	0xffff3f10
ffff3f24:	ea000001 	b	0xffff3f30
ffff3f28:	e3520000 	cmp	r2, #0
ffff3f2c:	0a000017 	beq	0xffff3f90
ffff3f30:	e591c048 	ldr	ip, [r1, #72]	; 0x48
ffff3f34:	e7ecc8dc 	ubfx	ip, ip, #17, #13
ffff3f38:	e1a0c10c 	lsl	ip, ip, #2
ffff3f3c:	e06c6006 	rsb	r6, ip, r6
ffff3f40:	e088c00c 	add	ip, r8, ip
ffff3f44:	e158000c 	cmp	r8, ip
ffff3f48:	15912200 	ldrne	r2, [r1, #512]	; 0x200
ffff3f4c:	14882004 	strne	r2, [r8], #4
ffff3f50:	1afffffb 	bne	0xffff3f44
ffff3f54:	e5813044 	str	r3, [r1, #68]	; 0x44
ffff3f58:	e5910044 	ldr	r0, [r1, #68]	; 0x44
ffff3f5c:	e30a2280 	movw	r2, #41600	; 0xa280
ffff3f60:	e0022000 	and	r2, r2, r0
ffff3f64:	e3520000 	cmp	r2, #0
ffff3f68:	1a000010 	bne	0xffff3fb0
ffff3f6c:	e5910044 	ldr	r0, [r1, #68]	; 0x44
ffff3f70:	e7e001d0 	ubfx	r0, r0, #3, #1
ffff3f74:	e3560000 	cmp	r6, #0
ffff3f78:	13a00000 	movne	r0, #0
ffff3f7c:	02000001 	andeq	r0, r0, #1
ffff3f80:	e3500000 	cmp	r0, #0
ffff3f84:	0affffd8 	beq	0xffff3eec
ffff3f88:	e3a03008 	mov	r3, #8
ffff3f8c:	e5813044 	str	r3, [r1, #68]	; 0x44
ffff3f90:	e3a03008 	mov	r3, #8
ffff3f94:	e3570001 	cmp	r7, #1
ffff3f98:	e5813044 	str	r3, [r1, #68]	; 0x44
ffff3f9c:	9a000015 	bls	0xffff3ff8
ffff3fa0:	e5953044 	ldr	r3, [r5, #68]	; 0x44
ffff3fa4:	e3130901 	tst	r3, #16384	; 0x4000
ffff3fa8:	0afffffc 	beq	0xffff3fa0
ffff3fac:	ea000011 	b	0xffff3ff8
ffff3fb0:	e59f305c 	ldr	r3, [pc, #92]	; 0xffff4014
ffff3fb4:	e308110c 	movw	r1, #33036	; 0x810c
ffff3fb8:	e3a02000 	mov	r2, #0
ffff3fbc:	e594000c 	ldr	r0, [r4, #12]
ffff3fc0:	e88d000e 	stm	sp, {r1, r2, r3}
ffff3fc4:	e1a0100d 	mov	r1, sp
ffff3fc8:	ebfffd49 	bl	0xffff34f4
ffff3fcc:	e5953048 	ldr	r3, [r5, #72]	; 0x48
ffff3fd0:	e3130004 	tst	r3, #4
ffff3fd4:	03a03002 	moveq	r3, #2
ffff3fd8:	05853000 	streq	r3, [r5]
ffff3fdc:	0a000001 	beq	0xffff3fe8
ffff3fe0:	e3a00000 	mov	r0, #0
ffff3fe4:	ea000004 	b	0xffff3ffc
ffff3fe8:	e5953000 	ldr	r3, [r5]
ffff3fec:	e3130002 	tst	r3, #2
ffff3ff0:	1afffffc 	bne	0xffff3fe8
ffff3ff4:	eafffff9 	b	0xffff3fe0
ffff3ff8:	e3a00001 	mov	r0, #1
ffff3ffc:	e28dd024 	add	sp, sp, #36	; 0x24
ffff4000:	e8bd8ff0 	pop	{r4, r5, r6, r7, r8, r9, sl, fp, pc}
ffff4004:	ffff5338 			; <UNDEFINED> instruction: 0xffff5338
ffff4008:	80000140 	andhi	r0, r0, r0, asr #2
ffff400c:	80003340 	andhi	r3, r0, r0, asr #6
ffff4010:	80002340 	andhi	r2, r0, r0, asr #6
ffff4014:	80004140 	andhi	r4, r0, r0, asr #2
ffff4018:	e3500000 	cmp	r0, #0
ffff401c:	1a000047 	bne	0xffff4140
ffff4020:	e59f224c 	ldr	r2, [pc, #588]	; 0xffff4274
ffff4024:	e5923024 	ldr	r3, [r2, #36]	; 0x24
ffff4028:	e3c33333 	bic	r3, r3, #-872415232	; 0xcc000000
ffff402c:	e3833311 	orr	r3, r3, #1140850688	; 0x44000000
ffff4030:	e5823024 	str	r3, [r2, #36]	; 0x24
ffff4034:	e59f323c 	ldr	r3, [pc, #572]	; 0xffff4278
ffff4038:	e5931020 	ldr	r1, [r3, #32]
ffff403c:	e3c11b33 	bic	r1, r1, #52224	; 0xcc00
ffff4040:	e3c110cc 	bic	r1, r1, #204	; 0xcc
ffff4044:	e3811b11 	orr	r1, r1, #17408	; 0x4400
ffff4048:	e3811044 	orr	r1, r1, #68	; 0x44
ffff404c:	e5831020 	str	r1, [r3, #32]
ffff4050:	e5921040 	ldr	r1, [r2, #64]	; 0x40
ffff4054:	e3c1120a 	bic	r1, r1, #-1610612736	; 0xa0000000
ffff4058:	e5821040 	str	r1, [r2, #64]	; 0x40
ffff405c:	e5921044 	ldr	r1, [r2, #68]	; 0x44
ffff4060:	e381120a 	orr	r1, r1, #-1610612736	; 0xa0000000
ffff4064:	e5821044 	str	r1, [r2, #68]	; 0x44
ffff4068:	e5921050 	ldr	r1, [r2, #80]	; 0x50
ffff406c:	e381120a 	orr	r1, r1, #-1610612736	; 0xa0000000
ffff4070:	e5821050 	str	r1, [r2, #80]	; 0x50
ffff4074:	e5921054 	ldr	r1, [r2, #84]	; 0x54
ffff4078:	e381120a 	orr	r1, r1, #-1610612736	; 0xa0000000
ffff407c:	e5821054 	str	r1, [r2, #84]	; 0x54
ffff4080:	e5921048 	ldr	r1, [r2, #72]	; 0x48
ffff4084:	e381120a 	orr	r1, r1, #-1610612736	; 0xa0000000
ffff4088:	e5821048 	str	r1, [r2, #72]	; 0x48
ffff408c:	e592104c 	ldr	r1, [r2, #76]	; 0x4c
ffff4090:	e381120a 	orr	r1, r1, #-1610612736	; 0xa0000000
ffff4094:	e582104c 	str	r1, [r2, #76]	; 0x4c
ffff4098:	e5921058 	ldr	r1, [r2, #88]	; 0x58
ffff409c:	e381120a 	orr	r1, r1, #-1610612736	; 0xa0000000
ffff40a0:	e5821058 	str	r1, [r2, #88]	; 0x58
ffff40a4:	e592105c 	ldr	r1, [r2, #92]	; 0x5c
ffff40a8:	e381120a 	orr	r1, r1, #-1610612736	; 0xa0000000
ffff40ac:	e582105c 	str	r1, [r2, #92]	; 0x5c
ffff40b0:	e5921060 	ldr	r1, [r2, #96]	; 0x60
ffff40b4:	e3811102 	orr	r1, r1, #-2147483648	; 0x80000000
ffff40b8:	e5821060 	str	r1, [r2, #96]	; 0x60
ffff40bc:	e5921064 	ldr	r1, [r2, #100]	; 0x64
ffff40c0:	e381120a 	orr	r1, r1, #-1610612736	; 0xa0000000
ffff40c4:	e5821064 	str	r1, [r2, #100]	; 0x64
ffff40c8:	e5932040 	ldr	r2, [r3, #64]	; 0x40
ffff40cc:	e3c220aa 	bic	r2, r2, #170	; 0xaa
ffff40d0:	e5832040 	str	r2, [r3, #64]	; 0x40
ffff40d4:	e5932044 	ldr	r2, [r3, #68]	; 0x44
ffff40d8:	e38220aa 	orr	r2, r2, #170	; 0xaa
ffff40dc:	e5832044 	str	r2, [r3, #68]	; 0x44
ffff40e0:	e5932050 	ldr	r2, [r3, #80]	; 0x50
ffff40e4:	e38220aa 	orr	r2, r2, #170	; 0xaa
ffff40e8:	e5832050 	str	r2, [r3, #80]	; 0x50
ffff40ec:	e5932054 	ldr	r2, [r3, #84]	; 0x54
ffff40f0:	e38220aa 	orr	r2, r2, #170	; 0xaa
ffff40f4:	e5832054 	str	r2, [r3, #84]	; 0x54
ffff40f8:	e5932048 	ldr	r2, [r3, #72]	; 0x48
ffff40fc:	e38220aa 	orr	r2, r2, #170	; 0xaa
ffff4100:	e5832048 	str	r2, [r3, #72]	; 0x48
ffff4104:	e593204c 	ldr	r2, [r3, #76]	; 0x4c
ffff4108:	e38220aa 	orr	r2, r2, #170	; 0xaa
ffff410c:	e583204c 	str	r2, [r3, #76]	; 0x4c
ffff4110:	e5932058 	ldr	r2, [r3, #88]	; 0x58
ffff4114:	e38220aa 	orr	r2, r2, #170	; 0xaa
ffff4118:	e5832058 	str	r2, [r3, #88]	; 0x58
ffff411c:	e593205c 	ldr	r2, [r3, #92]	; 0x5c
ffff4120:	e38220aa 	orr	r2, r2, #170	; 0xaa
ffff4124:	e583205c 	str	r2, [r3, #92]	; 0x5c
ffff4128:	e5932060 	ldr	r2, [r3, #96]	; 0x60
ffff412c:	e38220aa 	orr	r2, r2, #170	; 0xaa
ffff4130:	e5832060 	str	r2, [r3, #96]	; 0x60
ffff4134:	e5932064 	ldr	r2, [r3, #100]	; 0x64
ffff4138:	e38220aa 	orr	r2, r2, #170	; 0xaa
ffff413c:	ea00004a 	b	0xffff426c
ffff4140:	e3500001 	cmp	r0, #1
ffff4144:	1a000024 	bne	0xffff41dc
ffff4148:	e59f312c 	ldr	r3, [pc, #300]	; 0xffff427c
ffff414c:	e5932024 	ldr	r2, [r3, #36]	; 0x24
ffff4150:	e3c228ff 	bic	r2, r2, #16711680	; 0xff0000
ffff4154:	e3c22a0f 	bic	r2, r2, #61440	; 0xf000
ffff4158:	e3822855 	orr	r2, r2, #5570560	; 0x550000
ffff415c:	e3822a05 	orr	r2, r2, #20480	; 0x5000
ffff4160:	e5832024 	str	r2, [r3, #36]	; 0x24
ffff4164:	e5932040 	ldr	r2, [r3, #64]	; 0x40
ffff4168:	e3c2253f 	bic	r2, r2, #264241152	; 0xfc00000
ffff416c:	e5832040 	str	r2, [r3, #64]	; 0x40
ffff4170:	e5932044 	ldr	r2, [r3, #68]	; 0x44
ffff4174:	e382253f 	orr	r2, r2, #264241152	; 0xfc00000
ffff4178:	e5832044 	str	r2, [r3, #68]	; 0x44
ffff417c:	e5932050 	ldr	r2, [r3, #80]	; 0x50
ffff4180:	e382253f 	orr	r2, r2, #264241152	; 0xfc00000
ffff4184:	e5832050 	str	r2, [r3, #80]	; 0x50
ffff4188:	e5932054 	ldr	r2, [r3, #84]	; 0x54
ffff418c:	e382253f 	orr	r2, r2, #264241152	; 0xfc00000
ffff4190:	e5832054 	str	r2, [r3, #84]	; 0x54
ffff4194:	e5932048 	ldr	r2, [r3, #72]	; 0x48
ffff4198:	e382253f 	orr	r2, r2, #264241152	; 0xfc00000
ffff419c:	e5832048 	str	r2, [r3, #72]	; 0x48
ffff41a0:	e593204c 	ldr	r2, [r3, #76]	; 0x4c
ffff41a4:	e382253f 	orr	r2, r2, #264241152	; 0xfc00000
ffff41a8:	e583204c 	str	r2, [r3, #76]	; 0x4c
ffff41ac:	e5932058 	ldr	r2, [r3, #88]	; 0x58
ffff41b0:	e382253f 	orr	r2, r2, #264241152	; 0xfc00000
ffff41b4:	e5832058 	str	r2, [r3, #88]	; 0x58
ffff41b8:	e593205c 	ldr	r2, [r3, #92]	; 0x5c
ffff41bc:	e382253f 	orr	r2, r2, #264241152	; 0xfc00000
ffff41c0:	e583205c 	str	r2, [r3, #92]	; 0x5c
ffff41c4:	e5932060 	ldr	r2, [r3, #96]	; 0x60
ffff41c8:	e382253e 	orr	r2, r2, #260046848	; 0xf800000
ffff41cc:	e5832060 	str	r2, [r3, #96]	; 0x60
ffff41d0:	e5932064 	ldr	r2, [r3, #100]	; 0x64
ffff41d4:	e382253f 	orr	r2, r2, #264241152	; 0xfc00000
ffff41d8:	ea000023 	b	0xffff426c
ffff41dc:	e59f309c 	ldr	r3, [pc, #156]	; 0xffff4280
ffff41e0:	e5932024 	ldr	r2, [r3, #36]	; 0x24
ffff41e4:	e3c22cff 	bic	r2, r2, #65280	; 0xff00
ffff41e8:	e3c220f0 	bic	r2, r2, #240	; 0xf0
ffff41ec:	e3822caa 	orr	r2, r2, #43520	; 0xaa00
ffff41f0:	e38220a0 	orr	r2, r2, #160	; 0xa0
ffff41f4:	e5832024 	str	r2, [r3, #36]	; 0x24
ffff41f8:	e5932040 	ldr	r2, [r3, #64]	; 0x40
ffff41fc:	e3c2273f 	bic	r2, r2, #16515072	; 0xfc0000
ffff4200:	e5832040 	str	r2, [r3, #64]	; 0x40
ffff4204:	e5932044 	ldr	r2, [r3, #68]	; 0x44
ffff4208:	e382273f 	orr	r2, r2, #16515072	; 0xfc0000
ffff420c:	e5832044 	str	r2, [r3, #68]	; 0x44
ffff4210:	e5932050 	ldr	r2, [r3, #80]	; 0x50
ffff4214:	e382273f 	orr	r2, r2, #16515072	; 0xfc0000
ffff4218:	e5832050 	str	r2, [r3, #80]	; 0x50
ffff421c:	e5932054 	ldr	r2, [r3, #84]	; 0x54
ffff4220:	e382273f 	orr	r2, r2, #16515072	; 0xfc0000
ffff4224:	e5832054 	str	r2, [r3, #84]	; 0x54
ffff4228:	e5932048 	ldr	r2, [r3, #72]	; 0x48
ffff422c:	e382273f 	orr	r2, r2, #16515072	; 0xfc0000
ffff4230:	e5832048 	str	r2, [r3, #72]	; 0x48
ffff4234:	e593204c 	ldr	r2, [r3, #76]	; 0x4c
ffff4238:	e382273f 	orr	r2, r2, #16515072	; 0xfc0000
ffff423c:	e583204c 	str	r2, [r3, #76]	; 0x4c
ffff4240:	e5932058 	ldr	r2, [r3, #88]	; 0x58
ffff4244:	e382273f 	orr	r2, r2, #16515072	; 0xfc0000
ffff4248:	e5832058 	str	r2, [r3, #88]	; 0x58
ffff424c:	e593205c 	ldr	r2, [r3, #92]	; 0x5c
ffff4250:	e382273f 	orr	r2, r2, #16515072	; 0xfc0000
ffff4254:	e583205c 	str	r2, [r3, #92]	; 0x5c
ffff4258:	e5932060 	ldr	r2, [r3, #96]	; 0x60
ffff425c:	e382273e 	orr	r2, r2, #16252928	; 0xf80000
ffff4260:	e5832060 	str	r2, [r3, #96]	; 0x60
ffff4264:	e5932064 	ldr	r2, [r3, #100]	; 0x64
ffff4268:	e382273f 	orr	r2, r2, #16515072	; 0xfc0000
ffff426c:	e5832064 	str	r2, [r3, #100]	; 0x64
ffff4270:	e12fff1e 	bx	lr
ffff4274:	c001a000 	andgt	sl, r1, r0
ffff4278:	c001b000 	andgt	fp, r1, r0
ffff427c:	c001d000 	andgt	sp, r1, r0
ffff4280:	c001c000 	andgt	ip, r1, r0
ffff4284:	e92d41ff 	push	{r0, r1, r2, r3, r4, r5, r6, r7, r8, lr}
ffff4288:	e1a05000 	mov	r5, r0
ffff428c:	e59f317c 	ldr	r3, [pc, #380]	; 0xffff4410
ffff4290:	e5937000 	ldr	r7, [r3]
ffff4294:	e5d70050 	ldrb	r0, [r7, #80]	; 0x50
ffff4298:	e58d000c 	str	r0, [sp, #12]
ffff429c:	ebffff5d 	bl	0xffff4018
ffff42a0:	e1a0000d 	mov	r0, sp
ffff42a4:	ebfffda0 	bl	0xffff392c
ffff42a8:	e59d200c 	ldr	r2, [sp, #12]
ffff42ac:	e1a0000d 	mov	r0, sp
ffff42b0:	e59f315c 	ldr	r3, [pc, #348]	; 0xffff4414
ffff42b4:	e7934102 	ldr	r4, [r3, r2, lsl #2]
ffff42b8:	ebfffdfc 	bl	0xffff3ab0
ffff42bc:	e3500001 	cmp	r0, #1
ffff42c0:	0a000002 	beq	0xffff42d0
ffff42c4:	e59f014c 	ldr	r0, [pc, #332]	; 0xffff4418
ffff42c8:	ebfff5e1 	bl	0xffff1a54
ffff42cc:	ea000024 	b	0xffff4364
ffff42d0:	e5943048 	ldr	r3, [r4, #72]	; 0x48
ffff42d4:	e3130004 	tst	r3, #4
ffff42d8:	0a000009 	beq	0xffff4304
ffff42dc:	e5971040 	ldr	r1, [r7, #64]	; 0x40
ffff42e0:	e1a0000d 	mov	r0, sp
ffff42e4:	e3a02002 	mov	r2, #2
ffff42e8:	e1a03005 	mov	r3, r5
ffff42ec:	e1a014a1 	lsr	r1, r1, #9
ffff42f0:	ebfffecb 	bl	0xffff3e24
ffff42f4:	e2504000 	subs	r4, r0, #0
ffff42f8:	1a000007 	bne	0xffff431c
ffff42fc:	e59f0118 	ldr	r0, [pc, #280]	; 0xffff441c
ffff4300:	ea00003a 	b	0xffff43f0
ffff4304:	e3a03002 	mov	r3, #2
ffff4308:	e5843000 	str	r3, [r4]
ffff430c:	e5943000 	ldr	r3, [r4]
ffff4310:	e3130002 	tst	r3, #2
ffff4314:	1afffffc 	bne	0xffff430c
ffff4318:	eaffffef 	b	0xffff42dc
ffff431c:	e59f30fc 	ldr	r3, [pc, #252]	; 0xffff4420
ffff4320:	e5938000 	ldr	r8, [r3]
ffff4324:	e598323c 	ldr	r3, [r8, #572]	; 0x23c
ffff4328:	e3130901 	tst	r3, #16384	; 0x4000
ffff432c:	0a000003 	beq	0xffff4340
ffff4330:	e1a00005 	mov	r0, r5
ffff4334:	e1a01005 	mov	r1, r5
ffff4338:	e3a02b01 	mov	r2, #1024	; 0x400
ffff433c:	ebfffc1d 	bl	0xffff33b8
ffff4340:	e59f30dc 	ldr	r3, [pc, #220]	; 0xffff4424
ffff4344:	e59511fc 	ldr	r1, [r5, #508]	; 0x1fc
ffff4348:	e1510003 	cmp	r1, r3
ffff434c:	05956058 	ldreq	r6, [r5, #88]	; 0x58
ffff4350:	02453004 	subeq	r3, r5, #4
ffff4354:	02852fff 	addeq	r2, r5, #1020	; 0x3fc
ffff4358:	0a000003 	beq	0xffff436c
ffff435c:	e59f00c4 	ldr	r0, [pc, #196]	; 0xffff4428
ffff4360:	ebfff5bb 	bl	0xffff1a54
ffff4364:	e3a04000 	mov	r4, #0
ffff4368:	ea000021 	b	0xffff43f4
ffff436c:	e5b30004 	ldr	r0, [r3, #4]!
ffff4370:	e0651003 	rsb	r1, r5, r3
ffff4374:	e1530002 	cmp	r3, r2
ffff4378:	e7810006 	str	r0, [r1, r6]
ffff437c:	1afffffa 	bne	0xffff436c
ffff4380:	e5962050 	ldr	r2, [r6, #80]	; 0x50
ffff4384:	e1a0000d 	mov	r0, sp
ffff4388:	e5971040 	ldr	r1, [r7, #64]	; 0x40
ffff438c:	e2823b01 	add	r3, r2, #1024	; 0x400
ffff4390:	e2822e5f 	add	r2, r2, #1520	; 0x5f0
ffff4394:	e1a014a1 	lsr	r1, r1, #9
ffff4398:	e282200f 	add	r2, r2, #15
ffff439c:	e5863050 	str	r3, [r6, #80]	; 0x50
ffff43a0:	e5963058 	ldr	r3, [r6, #88]	; 0x58
ffff43a4:	e1a024a2 	lsr	r2, r2, #9
ffff43a8:	e2811002 	add	r1, r1, #2
ffff43ac:	e2833b01 	add	r3, r3, #1024	; 0x400
ffff43b0:	ebfffe9b 	bl	0xffff3e24
ffff43b4:	e598323c 	ldr	r3, [r8, #572]	; 0x23c
ffff43b8:	e1a04000 	mov	r4, r0
ffff43bc:	e3130901 	tst	r3, #16384	; 0x4000
ffff43c0:	0a000005 	beq	0xffff43dc
ffff43c4:	e1c625d8 	ldrd	r2, [r6, #88]	; 0x58
ffff43c8:	e2922b01 	adds	r2, r2, #1024	; 0x400
ffff43cc:	e1a00002 	mov	r0, r2
ffff43d0:	e1a01002 	mov	r1, r2
ffff43d4:	e5962050 	ldr	r2, [r6, #80]	; 0x50
ffff43d8:	ebfffbf6 	bl	0xffff33b8
ffff43dc:	e5d73050 	ldrb	r3, [r7, #80]	; 0x50
ffff43e0:	e3540000 	cmp	r4, #0
ffff43e4:	e5c6308b 	strb	r3, [r6, #139]	; 0x8b
ffff43e8:	1a000001 	bne	0xffff43f4
ffff43ec:	e59f0038 	ldr	r0, [pc, #56]	; 0xffff442c
ffff43f0:	ebfff597 	bl	0xffff1a54
ffff43f4:	e1a0000d 	mov	r0, sp
ffff43f8:	ebfffe81 	bl	0xffff3e04
ffff43fc:	e1a0000d 	mov	r0, sp
ffff4400:	ebfffd96 	bl	0xffff3a60
ffff4404:	e1a00004 	mov	r0, r4
ffff4408:	e28dd010 	add	sp, sp, #16
ffff440c:	e8bd81f0 	pop	{r4, r5, r6, r7, r8, pc}
ffff4410:	ffff51ec 			; <UNDEFINED> instruction: 0xffff51ec
ffff4414:	ffff5338 			; <UNDEFINED> instruction: 0xffff5338
ffff4418:	ffff538d 			; <UNDEFINED> instruction: 0xffff538d
ffff441c:	ffff53a3 			; <UNDEFINED> instruction: 0xffff53a3
ffff4420:	ffff51d8 			; <UNDEFINED> instruction: 0xffff51d8
ffff4424:	4849534e 	stmdami	r9, {r1, r2, r3, r6, r8, r9, ip, lr}^
ffff4428:	ffff53d1 			; <UNDEFINED> instruction: 0xffff53d1
ffff442c:	ffff5416 			; <UNDEFINED> instruction: 0xffff5416
ffff4430:	e92d4070 	push	{r4, r5, r6, lr}
ffff4434:	e24ddc02 	sub	sp, sp, #512	; 0x200
ffff4438:	e59f4158 	ldr	r4, [pc, #344]	; 0xffff4598
ffff443c:	e3a06001 	mov	r6, #1
ffff4440:	ebfff5d2 	bl	0xffff1b90
ffff4444:	e3a03fff 	mov	r3, #1020	; 0x3fc
ffff4448:	e5846800 	str	r6, [r4, #2048]	; 0x800
ffff444c:	e584389c 	str	r3, [r4, #2204]	; 0x89c
ffff4450:	ebfff184 	bl	0xffff0a68
ffff4454:	e1a05000 	mov	r5, r0
ffff4458:	ebfff291 	bl	0xffff0ea4
ffff445c:	e1a02006 	mov	r2, r6
ffff4460:	e3a0100e 	mov	r1, #14
ffff4464:	e3a00003 	mov	r0, #3
ffff4468:	ebfff2f9 	bl	0xffff1054
ffff446c:	e3a00000 	mov	r0, #0
ffff4470:	ebfff3f6 	bl	0xffff1450
ffff4474:	ebfff5da 	bl	0xffff1be4
ffff4478:	ebfff3df 	bl	0xffff13fc
ffff447c:	ebfff2c1 	bl	0xffff0f88
ffff4480:	e1a00005 	mov	r0, r5
ffff4484:	ebfffb64 	bl	0xffff321c
ffff4488:	ebfffb8e 	bl	0xffff32c8
ffff448c:	ebfffb8e 	bl	0xffff32cc
ffff4490:	ebfffb7c 	bl	0xffff3288
ffff4494:	ebfffb83 	bl	0xffff32a8
ffff4498:	ebfff2bb 	bl	0xffff0f8c
ffff449c:	e59f00f8 	ldr	r0, [pc, #248]	; 0xffff459c
ffff44a0:	ebfff575 	bl	0xffff1a7c
ffff44a4:	ebfff31e 	bl	0xffff1124
ffff44a8:	e594323c 	ldr	r3, [r4, #572]	; 0x23c
ffff44ac:	e3130702 	tst	r3, #524288	; 0x80000
ffff44b0:	e3e03cff 	mvn	r3, #65280	; 0xff00
ffff44b4:	13a02002 	movne	r2, #2
ffff44b8:	154320af 	strbne	r2, [r3, #-175]	; 0xffffff51
ffff44bc:	e55330af 	ldrb	r3, [r3, #-175]	; 0xffffff51
ffff44c0:	e3550000 	cmp	r5, #0
ffff44c4:	e5843234 	str	r3, [r4, #564]	; 0x234
ffff44c8:	0a000004 	beq	0xffff44e0
ffff44cc:	e59f30c4 	ldr	r3, [pc, #196]	; 0xffff4598
ffff44d0:	e59f00c8 	ldr	r0, [pc, #200]	; 0xffff45a0
ffff44d4:	e59318a8 	ldr	r1, [r3, #2216]	; 0x8a8
ffff44d8:	ebfff567 	bl	0xffff1a7c
ffff44dc:	ebfff178 	bl	0xffff0ac4
ffff44e0:	e59f30b0 	ldr	r3, [pc, #176]	; 0xffff4598
ffff44e4:	e3a02000 	mov	r2, #0
ffff44e8:	e5832800 	str	r2, [r3, #2048]	; 0x800
ffff44ec:	e3e03cff 	mvn	r3, #65280	; 0xff00
ffff44f0:	e59f20ac 	ldr	r2, [pc, #172]	; 0xffff45a4
ffff44f4:	e59310fd 	ldr	r1, [r3, #253]	; 0xfd
ffff44f8:	e1a04003 	mov	r4, r3
ffff44fc:	e1510002 	cmp	r1, r2
ffff4500:	0a000001 	beq	0xffff450c
ffff4504:	e59f009c 	ldr	r0, [pc, #156]	; 0xffff45a8
ffff4508:	ebfff551 	bl	0xffff1a54
ffff450c:	e55430a8 	ldrb	r3, [r4, #-168]	; 0xffffff58
ffff4510:	e3530003 	cmp	r3, #3
ffff4514:	1a000014 	bne	0xffff456c
ffff4518:	e59f008c 	ldr	r0, [pc, #140]	; 0xffff45ac
ffff451c:	ebfff54c 	bl	0xffff1a54
ffff4520:	e1a0000d 	mov	r0, sp
ffff4524:	ebffff56 	bl	0xffff4284
ffff4528:	e3500000 	cmp	r0, #0
ffff452c:	0a00000e 	beq	0xffff456c
ffff4530:	e59d5060 	ldr	r5, [sp, #96]	; 0x60
ffff4534:	e3a04211 	mov	r4, #268435457	; 0x10000001
ffff4538:	e59f0070 	ldr	r0, [pc, #112]	; 0xffff45b0
ffff453c:	ebfff544 	bl	0xffff1a54
ffff4540:	e59f006c 	ldr	r0, [pc, #108]	; 0xffff45b4
ffff4544:	e1a01005 	mov	r1, r5
ffff4548:	ebfff541 	bl	0xffff1a54
ffff454c:	ebfff445 	bl	0xffff1668
ffff4550:	e3500000 	cmp	r0, #0
ffff4554:	1a000001 	bne	0xffff4560
ffff4558:	e2544001 	subs	r4, r4, #1
ffff455c:	1afffffa 	bne	0xffff454c
ffff4560:	e3a00000 	mov	r0, #0
ffff4564:	e30110ea 	movw	r1, #4330	; 0x10ea
ffff4568:	e12fff35 	blx	r5
ffff456c:	e59f0044 	ldr	r0, [pc, #68]	; 0xffff45b8
ffff4570:	e3a04211 	mov	r4, #268435457	; 0x10000001
ffff4574:	ebfff536 	bl	0xffff1a54
ffff4578:	ebfff43a 	bl	0xffff1668
ffff457c:	e3500000 	cmp	r0, #0
ffff4580:	1a000001 	bne	0xffff458c
ffff4584:	e2544001 	subs	r4, r4, #1
ffff4588:	1afffffa 	bne	0xffff4578
ffff458c:	e3a0009c 	mov	r0, #156	; 0x9c
ffff4590:	ebfff0f1 	bl	0xffff095c
ffff4594:	eafffffe 	b	0xffff4594
ffff4598:	c0010000 	andgt	r0, r1, r0
ffff459c:	ffff51f0 			; <UNDEFINED> instruction: 0xffff51f0
ffff45a0:	ffff520e 			; <UNDEFINED> instruction: 0xffff520e
ffff45a4:	4849534e 	stmdami	r9, {r1, r2, r3, r6, r8, r9, ip, lr}^
ffff45a8:	ffff5247 			; <UNDEFINED> instruction: 0xffff5247
ffff45ac:	ffff5283 			; <UNDEFINED> instruction: 0xffff5283
ffff45b0:	ffff529b 			; <UNDEFINED> instruction: 0xffff529b
ffff45b4:	ffff52b2 			; <UNDEFINED> instruction: 0xffff52b2
ffff45b8:	ffff52c5 			; <UNDEFINED> instruction: 0xffff52c5
ffff45bc:	20636d73 	rsbcs	r6, r3, r3, ror sp
ffff45c0:	68746977 	ldmdavs	r4!, {r0, r1, r2, r4, r5, r6, r8, fp, sp, lr}^
ffff45c4:	73757320 	cmnvc	r5, #32, 6	; 0x80000000
ffff45c8:	646e6570 	strbtvs	r6, [lr], #-1392	; 0xfffffa90
ffff45cc:	71657220 	cmnvc	r5, r0, lsr #4
ffff45d0:	74736575 	ldrbtvc	r6, [r3], #-1397	; 0xfffffa8b
ffff45d4:	646f6320 	strbtvs	r6, [pc], #-800	; 0xffff45dc
ffff45d8:	64252065 	strtvs	r2, [r5], #-101	; 0xffffff9b
ffff45dc:	6e650a0d 	vmulvs.f32	s1, s10, s26
ffff45e0:	20726574 	rsbscs	r6, r2, r4, ror r5
ffff45e4:	70737573 	rsbsvc	r7, r3, r3, ror r5
ffff45e8:	2e646e65 	cdpcs	14, 6, cr6, cr4, cr5, {3}
ffff45ec:	0a0d2e2e 	beq	0x33feac
ffff45f0:	63616d00 	cmnvs	r1, #0, 26
ffff45f4:	656e6968 	strbvs	r6, [lr, #-2408]!	; 0xfffff698
ffff45f8:	20736920 	rsbscs	r6, r3, r0, lsr #18
ffff45fc:	75736572 	ldrbvc	r6, [r3, #-1394]!	; 0xfffffa8e
ffff4600:	2064656d 	rsbcs	r6, r4, sp, ror #10
ffff4604:	6d207461 	cfstrsvs	mvf7, [r0, #-388]!	; 0xfffffe7c
ffff4608:	2065646f 	rsbcs	r6, r5, pc, ror #8
ffff460c:	78257830 	stmdavc	r5!, {r4, r5, fp, ip, sp, lr}
ffff4610:	75000a0d 	strvc	r0, [r0, #-2573]	; 0xfffff5f3
ffff4614:	6f6e6b6e 	svcvs	0x006e6b6e
ffff4618:	65206e77 	strvs	r6, [r0, #-3703]!	; 0xfffff189
ffff461c:	74706378 	ldrbtvc	r6, [r0], #-888	; 0xfffffc88
ffff4620:	206e6f69 	rsbcs	r6, lr, r9, ror #30
ffff4624:	4d206f74 	stcmi	15, cr6, [r0, #-464]!	; 0xfffffe30
ffff4628:	74696e6f 	strbtvc	r6, [r9], #-3695	; 0xfffff191
ffff462c:	6d20726f 	sfmvs	f7, 4, [r0, #-444]!	; 0xfffffe44
ffff4630:	0d65646f 	cfstrdeq	mvd6, [r5, #-444]!	; 0xfffffe44
ffff4634:	5243000a 	subpl	r0, r3, #10
ffff4638:	30203a43 	eorcc	r3, r0, r3, asr #20
ffff463c:	38302578 	ldmdacc	r0!, {r3, r4, r5, r6, r8, sl, sp}
ffff4640:	4e462058 	mcrmi	0, 2, r2, cr6, cr8, {2}
ffff4644:	7830203a 	ldmdavc	r0!, {r1, r3, r4, r5, sp}
ffff4648:	58383025 	ldmdapl	r8!, {r0, r2, r5, ip, sp}
ffff464c:	79687020 	stmdbvc	r8!, {r5, ip, sp, lr}^
ffff4650:	7830203a 	ldmdavc	r0!, {r1, r3, r4, r5, sp}
ffff4654:	58383025 	ldmdapl	r8!, {r0, r2, r5, ip, sp}
ffff4658:	6e656c20 	cdpvs	12, 6, cr6, cr5, cr0, {1}
ffff465c:	7830203a 	ldmdavc	r0!, {r1, r3, r4, r5, sp}
ffff4660:	58383025 	ldmdapl	r8!, {r0, r2, r5, ip, sp}
ffff4664:	74657220 	strbtvc	r7, [r5], #-544	; 0xfffffde0
ffff4668:	7830203a 	ldmdavc	r0!, {r1, r3, r4, r5, sp}
ffff466c:	58383025 	ldmdapl	r8!, {r0, r2, r5, ip, sp}
ffff4670:	49000a0d 	stmdbmi	r0, {r0, r2, r3, r9, fp}
ffff4674:	20732774 	rsbscs	r2, r3, r4, ror r7
ffff4678:	4d524157 	ldfmie	f4, [r2, #-348]	; 0xfffffea4
ffff467c:	4f4f4220 	svcmi	0x004f4220
ffff4680:	4a0a0d54 	bmi	0x277bd8
ffff4684:	20706d75 	rsbscs	r6, r0, r5, ror sp
ffff4688:	4b206f74 	blmi	0x810460
ffff468c:	656e7265 	strbvs	r7, [lr, #-613]!	; 0xfffffd9b
ffff4690:	0a0d216c 	beq	0x33cc48
ffff4694:	6c614300 	stclvs	3, cr4, [r1], #-0
ffff4698:	61727563 	cmnvs	r2, r3, ror #10
ffff469c:	20646574 	rsbcs	r6, r4, r4, ror r5
ffff46a0:	3a435243 	bcc	0x10c8fb4
ffff46a4:	25783020 	ldrbcs	r3, [r8, #-32]!	; 0xffffffe0
ffff46a8:	2c583830 	mrrccs	8, 3, r3, r8, cr0
ffff46ac:	726f4e20 	rsbvc	r4, pc, #32, 28	; 0x200
ffff46b0:	206c616d 	rsbcs	r6, ip, sp, ror #2
ffff46b4:	3a435243 	bcc	0x10c8fc8
ffff46b8:	25783020 	ldrbcs	r3, [r8, #-32]!	; 0xffffffe0
ffff46bc:	20583830 	subscs	r3, r8, r0, lsr r8
ffff46c0:	4a000a0d 	bmi	0xffff6efc
ffff46c4:	20706d75 	rsbscs	r6, r0, r5, ror sp
ffff46c8:	30206f74 	eorcc	r6, r0, r4, ror pc
ffff46cc:	38302578 	ldmdacc	r0!, {r3, r4, r5, r6, r8, sl, sp}
ffff46d0:	000a0d58 	andeq	r0, sl, r8, asr sp
ffff46d4:	73277449 			; <UNDEFINED> instruction: 0x73277449
ffff46d8:	52415720 	subpl	r5, r1, #32, 14	; 0x800000
ffff46dc:	4f42204d 	svcmi	0x0042204d
ffff46e0:	0a0d544f 	beq	0x349824
ffff46e4:	706d754a 	rsbvc	r7, sp, sl, asr #10
ffff46e8:	206f7420 	rsbcs	r7, pc, r0, lsr #8
ffff46ec:	21465441 	cmpcs	r6, r1, asr #8
ffff46f0:	43000a0d 	movwmi	r0, #2573	; 0xa0d
ffff46f4:	63204352 			; <UNDEFINED> instruction: 0x63204352
ffff46f8:	6b636568 	blvs	0x18cdca0
ffff46fc:	69616620 	stmdbvs	r1!, {r5, r9, sl, sp, lr}^
ffff4700:	2e64656c 	cdpcs	5, 6, cr6, cr4, cr12, {3}
ffff4704:	206f4720 	rsbcs	r4, pc, r0, lsr #14
ffff4708:	43206f74 			; <UNDEFINED> instruction: 0x43206f74
ffff470c:	20444c4f 	subcs	r4, r4, pc, asr #24
ffff4710:	544f4f42 	strbpl	r4, [pc], #-3906	; 0xffff4718
ffff4714:	000a0d2e 	andeq	r0, sl, lr, lsr #26
ffff4718:	656e6547 	strbvs	r6, [lr, #-1351]!	; 0xfffffab9
ffff471c:	206c6172 	rsbcs	r6, ip, r2, ror r1
ffff4720:	70737553 	rsbsvc	r7, r3, r3, asr r5
ffff4724:	20646e65 	rsbcs	r6, r4, r5, ror #28
ffff4728:	6e676953 			; <UNDEFINED> instruction: 0x6e676953
ffff472c:	72757461 	rsbsvc	r7, r5, #1627389952	; 0x61000000
ffff4730:	73692065 	cmnvc	r9, #101	; 0x65
ffff4734:	66696420 	strbtvs	r6, [r9], -r0, lsr #8
ffff4738:	65726566 	ldrbvs	r6, [r2, #-1382]!	; 0xfffffa9a
ffff473c:	0d2e746e 	cfstrseq	mvf7, [lr, #-440]!	; 0xfffffe48
ffff4740:	6165520a 	cmnvs	r5, sl, lsl #4
ffff4744:	69532064 	ldmdbvs	r3, {r2, r5, r6, sp}^
ffff4748:	74616e67 	strbtvc	r6, [r1], #-3687	; 0xfffff199
ffff474c:	20657275 	rsbcs	r7, r5, r5, ror r2
ffff4750:	2578303a 	ldrbcs	r3, [r8, #-58]!	; 0xffffffc6
ffff4754:	0d583830 	ldcleq	8, cr3, [r8, #-192]	; 0xffffff40
ffff4758:	7449000a 	strbvc	r0, [r9], #-10
ffff475c:	43207327 			; <UNDEFINED> instruction: 0x43207327
ffff4760:	20444c4f 	subcs	r4, r4, pc, asr #24
ffff4764:	544f4f42 	strbpl	r4, [pc], #-3906	; 0xffff476c
ffff4768:	4e000a0d 	vmlami.f32	s0, s0, s26
ffff476c:	4349544f 	movtmi	r5, #37967	; 0x944f
ffff4770:	20203a45 	eorcs	r3, r0, r5, asr #20
ffff4774:	65746e65 	ldrbvs	r6, [r4, #-3685]!	; 0xfffff19b
ffff4778:	68742072 	ldmdavs	r4!, {r1, r4, r5, r6, sp}^
ffff477c:	65732065 	ldrbvs	r2, [r3, #-101]!	; 0xffffff9b
ffff4780:	7220666c 	eorvc	r6, r0, #108, 12	; 0x6c00000
ffff4784:	65726665 	ldrbvs	r6, [r2, #-1637]!	; 0xfffff99b
ffff4788:	21206873 			; <UNDEFINED> instruction: 0x21206873
ffff478c:	000a0d21 	andeq	r0, sl, r1, lsr #26
ffff4790:	49544f4e 	ldmdbmi	r4, {r1, r2, r3, r6, r8, r9, sl, fp, lr}^
ffff4794:	203a4543 	eorscs	r4, sl, r3, asr #10
ffff4798:	69786520 	ldmdbvs	r8!, {r5, r8, sl, sp, lr}^
ffff479c:	68742074 	ldmdavs	r4!, {r2, r4, r5, r6, sp}^
ffff47a0:	65732065 	ldrbvs	r2, [r3, #-101]!	; 0xffffff9b
ffff47a4:	7220666c 	eorvc	r6, r0, #108, 12	; 0x6c00000
ffff47a8:	65726665 	ldrbvs	r6, [r2, #-1637]!	; 0xfffff99b
ffff47ac:	21206873 			; <UNDEFINED> instruction: 0x21206873
ffff47b0:	000a0d21 	andeq	r0, sl, r1, lsr #26
ffff47b4:	49544f4e 	ldmdbmi	r4, {r1, r2, r3, r6, r8, r9, sl, fp, lr}^
ffff47b8:	203a4543 	eorscs	r4, sl, r3, asr #10
ffff47bc:	6b615720 	blvs	0x184a444
ffff47c0:	20707565 	rsbscs	r7, r0, r5, ror #10
ffff47c4:	20627553 	rsbcs	r7, r2, r3, asr r5
ffff47c8:	20555043 	subscs	r5, r5, r3, asr #32
ffff47cc:	52524500 	subspl	r4, r2, #0, 10
ffff47d0:	203a524f 	eorscs	r5, sl, pc, asr #4
ffff47d4:	4c502020 	mrrcmi	0, 2, r2, r0, cr0
ffff47d8:	6f64204c 	svcvs	0x0064204c
ffff47dc:	6e207365 	cdpvs	3, 2, cr7, cr0, cr5, {3}
ffff47e0:	4c20746f 	cfstrsmi	mvf7, [r0], #-444	; 0xfffffe44
ffff47e4:	656b636f 	strbvs	r6, [fp, #-879]!	; 0xfffffc91
ffff47e8:	530a0d64 	movwpl	r0, #44388	; 0xad64
ffff47ec:	65747379 	ldrbvs	r7, [r4, #-889]!	; 0xfffffc87
ffff47f0:	6168206d 	cmnvs	r8, sp, rrx
ffff47f4:	0d21746c 	cfstrseq	mvf7, [r1, #-432]!	; 0xfffffe50
ffff47f8:	00000a0d 	andeq	r0, r0, sp, lsl #20
ffff47fc:	e0090000 	and	r0, r9, r0
ffff4800:	c0012000 	andgt	r2, r1, r0
ffff4804:	00000200 	andeq	r0, r0, r0, lsl #4
ffff4808:	00000000 	andeq	r0, r0, r0
ffff480c:	00000000 	andeq	r0, r0, r0
ffff4810:	00000000 	andeq	r0, r0, r0
ffff4814:	000000ff 	strdeq	r0, [r0], -pc	; <UNPREDICTABLE>
ffff4818:	00000007 	andeq	r0, r0, r7
ffff481c:	0000007f 	andeq	r0, r0, pc, ror r0
ffff4820:	00000000 	andeq	r0, r0, r0
ffff4824:	000000ff 	strdeq	r0, [r0], -pc	; <UNPREDICTABLE>
ffff4828:	00000000 	andeq	r0, r0, r0
ffff482c:	000000ff 	strdeq	r0, [r0], -pc	; <UNPREDICTABLE>
ffff4830:	00000000 	andeq	r0, r0, r0
ffff4834:	000000b7 	strheq	r0, [r0], -r7
ffff4838:	0000007f 	andeq	r0, r0, pc, ror r0
ffff483c:	000000fa 	strdeq	r0, [r0], -sl
ffff4840:	000000bf 	strheq	r0, [r0], -pc	; <UNPREDICTABLE>
ffff4844:	000000ff 	strdeq	r0, [r0], -pc	; <UNPREDICTABLE>
ffff4848:	000000ff 	strdeq	r0, [r0], -pc	; <UNPREDICTABLE>
ffff484c:	000000bf 	strheq	r0, [r0], -pc	; <UNPREDICTABLE>
ffff4850:	00000000 	andeq	r0, r0, r0
ffff4854:	000000ff 	strdeq	r0, [r0], -pc	; <UNPREDICTABLE>
ffff4858:	00000007 	andeq	r0, r0, r7
ffff485c:	000000ff 	strdeq	r0, [r0], -pc	; <UNPREDICTABLE>
ffff4860:	000000ff 	strdeq	r0, [r0], -pc	; <UNPREDICTABLE>
ffff4864:	000000ff 	strdeq	r0, [r0], -pc	; <UNPREDICTABLE>
ffff4868:	000000ff 	strdeq	r0, [r0], -pc	; <UNPREDICTABLE>
ffff486c:	000000ff 	strdeq	r0, [r0], -pc	; <UNPREDICTABLE>
ffff4870:	000000ff 	strdeq	r0, [r0], -pc	; <UNPREDICTABLE>
ffff4874:	00000000 	andeq	r0, r0, r0
ffff4878:	00000000 	andeq	r0, r0, r0
ffff487c:	00000001 	andeq	r0, r0, r1
ffff4880:	00000000 	andeq	r0, r0, r0
ffff4884:	20314c42 	eorscs	r4, r1, r2, asr #24
ffff4888:	4e207962 	vnmulmi.f16	s14, s0, s5	; <UNPREDICTABLE>
ffff488c:	6c657865 	stclvs	8, cr7, [r5], #-404	; 0xfffffe6c
ffff4890:	2556206c 	ldrbcs	r2, [r6, #-108]	; 0xffffff94
ffff4894:	64252e64 	strtvs	r2, [r5], #-3684	; 0xfffff19c
ffff4898:	2564252e 	strbcs	r2, [r4, #-1326]!	; 0xfffffad2
ffff489c:	425b2073 	subsmi	r2, fp, #115	; 0x73
ffff48a0:	746c6975 	strbtvc	r6, [ip], #-2421	; 0xfffff68b
ffff48a4:	206e6f20 	rsbcs	r6, lr, r0, lsr #30
ffff48a8:	0d5d7325 	ldcleq	3, cr7, [sp, #-148]	; 0xffffff6c
ffff48ac:	000a0d0a 	andeq	r0, sl, sl, lsl #26
ffff48b0:	3434672d 	ldrtcc	r6, [r4], #-1837	; 0xfffff8d3
ffff48b4:	63383462 	teqvs	r8, #1644167168	; 0x62000000
ffff48b8:	30320064 	eorscc	r0, r2, r4, rrx
ffff48bc:	302d3731 	eorcc	r3, sp, r1, lsr r7
ffff48c0:	32302d38 	eorscc	r2, r0, #56, 26	; 0xe00
ffff48c4:	3a353120 	bcc	0xd40d4c
ffff48c8:	353a3835 	ldrcc	r3, [sl, #-2101]!	; 0xfffff7cb
ffff48cc:	00000034 	andeq	r0, r0, r4, lsr r0
ffff48d0:	c00a9000 	andgt	r9, sl, r0
ffff48d4:	c00a8000 	andgt	r8, sl, r0
ffff48d8:	c00aa000 	andgt	sl, sl, r0
ffff48dc:	c00ab000 	andgt	fp, sl, r0
ffff48e0:	c006e000 	andgt	lr, r6, r0
ffff48e4:	c00b1000 	andgt	r1, fp, r0
ffff48e8:	c00a1000 	andgt	r1, sl, r0
ffff48ec:	c00a0000 	andgt	r0, sl, r0
ffff48f0:	c00a2000 	andgt	r2, sl, r0
ffff48f4:	c00a3000 	andgt	r3, sl, r0
ffff48f8:	c006d000 	andgt	sp, r6, r0
ffff48fc:	c006f000 	andgt	pc, r6, r0
ffff4900:	00010094 	muleq	r1, r4, r0
ffff4904:	00010095 	muleq	r1, r5, r0
ffff4908:	00010096 	muleq	r1, r6, r0
ffff490c:	0001009a 	muleq	r1, sl, r0
ffff4910:	0001009b 	muleq	r1, fp, r0
ffff4914:	0001009c 	muleq	r1, ip, r0
ffff4918:	00010097 	muleq	r1, r7, r0
ffff491c:	00010098 	muleq	r1, r8, r0
ffff4920:	00010099 	muleq	r1, r9, r0
ffff4924:	0001009d 	muleq	r1, sp, r0
ffff4928:	0001009e 	muleq	r1, lr, r0
ffff492c:	0001009f 	muleq	r1, pc, r0	; <UNPREDICTABLE>
ffff4930:	000100a0 	andeq	r0, r1, r0, lsr #1
ffff4934:	000100a1 	andeq	r0, r1, r1, lsr #1
ffff4938:	000100a2 	andeq	r0, r1, r2, lsr #1
ffff493c:	000100a3 	andeq	r0, r1, r3, lsr #1
ffff4940:	000100a4 	andeq	r0, r1, r4, lsr #1
ffff4944:	000100a5 	andeq	r0, r1, r5, lsr #1
ffff4948:	00010371 	andeq	r0, r1, r1, ror r3
ffff494c:	00010391 	muleq	r1, r1, r3
ffff4950:	00010379 	andeq	r0, r1, r9, ror r3
ffff4954:	00010399 	muleq	r1, r9, r3
ffff4958:	00010381 	andeq	r0, r1, r1, lsl #7
ffff495c:	000103a1 	andeq	r0, r1, r1, lsr #7
ffff4960:	00010389 	andeq	r0, r1, r9, lsl #7
ffff4964:	000103a9 	andeq	r0, r1, r9, lsr #7
ffff4968:	000101e3 	andeq	r0, r1, r3, ror #3
ffff496c:	000101eb 	andeq	r0, r1, fp, ror #3
ffff4970:	000101f3 	strdeq	r0, [r1], -r3
ffff4974:	000101fb 	strdeq	r0, [r1], -fp
ffff4978:	35343332 	ldrcc	r3, [r4, #-818]!	; 0xfffffcce
ffff497c:	00003736 	andeq	r3, r0, r6, lsr r7
ffff4980:	6c756e28 	ldclvs	14, cr6, [r5], #-160	; 0xffffff60
ffff4984:	4600296c 	strmi	r2, [r0], -ip, ror #18
ffff4988:	656c6961 	strbvs	r6, [ip, #-2401]!	; 0xfffff69f
ffff498c:	75530064 	ldrbvc	r0, [r3, #-100]	; 0xffffff9c
ffff4990:	73656363 	cmnvc	r5, #-1946157055	; 0x8c000001
ffff4994:	4f4e0073 	svcmi	0x004e0073
ffff4998:	45434954 	strbmi	r4, [r3, #-2388]	; 0xfffff6ac
ffff499c:	4320203a 			; <UNDEFINED> instruction: 0x4320203a
ffff49a0:	43204352 			; <UNDEFINED> instruction: 0x43204352
ffff49a4:	6b636568 	blvs	0x18cdf4c
ffff49a8:	21732520 	cmncs	r3, r0, lsr #10
ffff49ac:	25282021 	strcs	r2, [r8, #-33]!	; 0xffffffdf
ffff49b0:	3a583830 	bcc	0x1602a78
ffff49b4:	58383025 	ldmdapl	r8!, {r0, r2, r5, ip, sp}
ffff49b8:	0a0d2029 	beq	0x33ca64
ffff49bc:	544f4e00 	strbpl	r4, [pc], #-3584	; 0xffff49c4
ffff49c0:	3a454349 	bcc	0x11456ec
ffff49c4:	4d452020 	stclmi	0, cr2, [r5, #-128]	; 0xffffff80
ffff49c8:	73692041 	cmnvc	r9, #65	; 0x41
ffff49cc:	0d732520 	cfldr64eq	mvdx2, [r3, #-128]!	; 0xffffff80
ffff49d0:	2e31000a 	cdpcs	0, 3, cr0, cr1, cr10, {0}
ffff49d4:	4e005631 	mcrmi	6, 0, r5, cr0, cr1, {1}
ffff49d8:	4349544f 	movtmi	r5, #37967	; 0x944f
ffff49dc:	20203a45 	eorcs	r3, r0, r5, asr #20
ffff49e0:	6b726f57 	blvs	0x1c90744
ffff49e4:	20676e69 	rsbcs	r6, r7, r9, ror #28
ffff49e8:	61206f74 			; <UNDEFINED> instruction: 0x61206f74
ffff49ec:	68637261 	stmdavs	r3!, {r0, r5, r6, r9, ip, sp, lr}^
ffff49f0:	0a0d6425 	beq	0x34da8c
ffff49f4:	69617720 	stmdbvs	r1!, {r5, r8, r9, sl, ip, sp, lr}^
ffff49f8:	676e6974 			; <UNDEFINED> instruction: 0x676e6974
ffff49fc:	726f6620 	rsbvc	r6, pc, #32, 12	; 0x2000000
ffff4a00:	6c6c7020 	stclvs	0, cr7, [ip], #-128	; 0xffffff80
ffff4a04:	61686320 	cmnvs	r8, r0, lsr #6
ffff4a08:	2e65676e 	cdpcs	7, 6, cr6, cr5, cr14, {3}
ffff4a0c:	000a0d2e 	andeq	r0, sl, lr, lsr #26
ffff4a10:	70696843 	rsbvc	r6, r9, r3, asr #16
ffff4a14:	3220203a 	eorcc	r2, r0, #58	; 0x3a
ffff4a18:	00000a0d 	andeq	r0, r0, sp, lsl #20
ffff4a1c:	c00e5000 	andgt	r5, lr, r0
ffff4a20:	c00e1000 	andgt	r1, lr, r0
ffff4a24:	c00e0000 	andgt	r0, lr, r0
ffff4a28:	43494c53 	movtmi	r4, #40019	; 0x9c53
ffff4a2c:	30252045 	eorcc	r2, r5, r5, asr #32
ffff4a30:	25206433 	strcs	r6, [r0, #-1075]!	; 0xfffffbcd
ffff4a34:	20643330 	rsbcs	r3, r4, r0, lsr r3
ffff4a38:	64333025 	ldrtvs	r3, [r3], #-37	; 0xffffffdb
ffff4a3c:	33302520 	teqcc	r0, #32, 10	; 0x8000000
ffff4a40:	200a0d64 	andcs	r0, sl, r4, ror #26
ffff4a44:	20202020 	eorcs	r2, r0, r0, lsr #32
ffff4a48:	30252000 	eorcc	r2, r5, r0
ffff4a4c:	0d005833 	stceq	8, cr5, [r0, #-204]	; 0xffffff34
ffff4a50:	2323230a 			; <UNDEFINED> instruction: 0x2323230a
ffff4a54:	23232323 			; <UNDEFINED> instruction: 0x23232323
ffff4a58:	20232323 	eorcs	r2, r3, r3, lsr #6
ffff4a5c:	74697257 	strbtvc	r7, [r9], #-599	; 0xfffffda9
ffff4a60:	654c2065 	strbvs	r2, [ip, #-101]	; 0xffffff9b
ffff4a64:	696c6576 	stmdbvs	ip!, {r1, r2, r4, r5, r6, r8, sl, sp, lr}^
ffff4a68:	2d20676e 	stccs	7, cr6, [r0, #-440]!	; 0xfffffe48
ffff4a6c:	61745320 	cmnvs	r4, r0, lsr #6
ffff4a70:	23207472 			; <UNDEFINED> instruction: 0x23207472
ffff4a74:	23232323 			; <UNDEFINED> instruction: 0x23232323
ffff4a78:	23232323 			; <UNDEFINED> instruction: 0x23232323
ffff4a7c:	000a0d23 	andeq	r0, sl, r3, lsr #26
ffff4a80:	54495257 	strbpl	r5, [r9], #-599	; 0xfffffda9
ffff4a84:	564c2045 	strbpl	r2, [ip], -r5, asr #32
ffff4a88:	57203a4c 	strpl	r3, [r0, -ip, asr #20]!
ffff4a8c:	69746961 	ldmdbvs	r4!, {r0, r5, r6, r8, fp, sp, lr}^
ffff4a90:	7720676e 	strvc	r6, [r0, -lr, ror #14]!
ffff4a94:	6c766c72 	ldclvs	12, cr6, [r6], #-456	; 0xfffffe38
ffff4a98:	7365725f 	cmnvc	r5, #-268435451	; 0xf0000005
ffff4a9c:	2e2e2e70 	mcrcs	14, 1, r2, cr14, cr0, {3}
ffff4aa0:	0d212121 	stfeqs	f2, [r1, #-132]!	; 0xffffff7c
ffff4aa4:	5257000a 	subspl	r0, r7, #10
ffff4aa8:	20455449 	subcs	r5, r5, r9, asr #8
ffff4aac:	3a4c564c 	bcc	0x130a3e4
ffff4ab0:	76654c20 	strbtvc	r4, [r5], -r0, lsr #24
ffff4ab4:	6e696c65 	cdpvs	12, 6, cr6, cr9, cr5, {3}
ffff4ab8:	65522067 	ldrbvs	r2, [r2, #-103]	; 0xffffff99
ffff4abc:	6e6f7073 	mcrvs	0, 3, r7, cr15, cr3, {3}
ffff4ac0:	20657365 	rsbcs	r7, r5, r5, ror #6
ffff4ac4:	63656843 	cmnvs	r5, #4390912	; 0x430000
ffff4ac8:	676e696b 	strbvs	r6, [lr, -fp, ror #18]!
ffff4acc:	66203a20 	strtvs	r3, [r0], -r0, lsr #20
ffff4ad0:	2e6c6961 	vnmulcs.f16	s13, s24, s3	; <UNPREDICTABLE>
ffff4ad4:	21212e2e 			; <UNDEFINED> instruction: 0x21212e2e
ffff4ad8:	000a0d21 	andeq	r0, sl, r1, lsr #26
ffff4adc:	23230a0d 			; <UNDEFINED> instruction: 0x23230a0d
ffff4ae0:	23232323 			; <UNDEFINED> instruction: 0x23232323
ffff4ae4:	23232323 			; <UNDEFINED> instruction: 0x23232323
ffff4ae8:	69725720 	ldmdbvs	r2!, {r5, r8, r9, sl, ip, lr}^
ffff4aec:	4c206574 	cfstr32mi	mvfx6, [r0], #-464	; 0xfffffe30
ffff4af0:	6c657665 	stclvs	6, cr7, [r5], #-404	; 0xfffffe6c
ffff4af4:	20676e69 	rsbcs	r6, r7, r9, ror #28
ffff4af8:	6e45202d 	cdpvs	0, 4, cr2, cr5, cr13, {1}
ffff4afc:	23232064 			; <UNDEFINED> instruction: 0x23232064
ffff4b00:	23232323 			; <UNDEFINED> instruction: 0x23232323
ffff4b04:	23232323 			; <UNDEFINED> instruction: 0x23232323
ffff4b08:	0d000a0d 	vstreq	s0, [r0, #-52]	; 0xffffffcc
ffff4b0c:	2323230a 			; <UNDEFINED> instruction: 0x2323230a
ffff4b10:	23232323 			; <UNDEFINED> instruction: 0x23232323
ffff4b14:	74614720 	strbtvc	r4, [r1], #-1824	; 0xfffff8e0
ffff4b18:	654c2065 	strbvs	r2, [ip, #-101]	; 0xffffff9b
ffff4b1c:	696c6576 	stmdbvs	ip!, {r1, r2, r4, r5, r6, r8, sl, sp, lr}^
ffff4b20:	2d20676e 	stccs	7, cr6, [r0, #-440]!	; 0xfffffe48
ffff4b24:	666e4920 	strbtvs	r4, [lr], -r0, lsr #18
ffff4b28:	616d726f 	cmnvs	sp, pc, ror #4
ffff4b2c:	6e6f6974 			; <UNDEFINED> instruction: 0x6e6f6974
ffff4b30:	23232320 			; <UNDEFINED> instruction: 0x23232320
ffff4b34:	23232323 			; <UNDEFINED> instruction: 0x23232323
ffff4b38:	47000a0d 	strmi	r0, [r0, -sp, lsl #20]
ffff4b3c:	20657461 	rsbcs	r7, r5, r1, ror #8
ffff4b40:	6576654c 	ldrbvs	r6, [r6, #-1356]!	; 0xfffffab4
ffff4b44:	676e696c 	strbvs	r6, [lr, -ip, ror #18]!
ffff4b48:	21732520 	cmncs	r3, r0, lsr #10
ffff4b4c:	0a0d2021 	beq	0x33cbd8
ffff4b50:	74614700 	strbtvc	r4, [r1], #-1792	; 0xfffff900
ffff4b54:	654c2065 	strbvs	r2, [ip, #-101]	; 0xffffff9b
ffff4b58:	206c6576 	rsbcs	r6, ip, r6, ror r5
ffff4b5c:	746e6543 	strbtvc	r6, [lr], #-1347	; 0xfffffabd
ffff4b60:	20207265 	eorcs	r7, r0, r5, ror #4
ffff4b64:	203a2020 	eorscs	r2, sl, r0, lsr #32
ffff4b68:	2c643225 	sfmcs	f3, 2, [r4], #-148	; 0xffffff6c
ffff4b6c:	64322520 	ldrtvs	r2, [r2], #-1312	; 0xfffffae0
ffff4b70:	3225202c 	eorcc	r2, r5, #44	; 0x2c
ffff4b74:	25202c64 	strcs	r2, [r0, #-3172]!	; 0xfffff39c
ffff4b78:	0a0d6432 	beq	0x34dc48
ffff4b7c:	74614700 	strbtvc	r4, [r1], #-1792	; 0xfffff900
ffff4b80:	654c2065 	strbvs	r2, [ip, #-101]	; 0xffffff9b
ffff4b84:	206c6576 	rsbcs	r6, ip, r6, ror r5
ffff4b88:	6c637943 			; <UNDEFINED> instruction: 0x6c637943
ffff4b8c:	20202065 	eorcs	r2, r0, r5, rrx
ffff4b90:	203a2020 	eorscs	r2, sl, r0, lsr #32
ffff4b94:	202c6425 	eorcs	r6, ip, r5, lsr #8
ffff4b98:	202c6425 	eorcs	r6, ip, r5, lsr #8
ffff4b9c:	202c6425 	eorcs	r6, ip, r5, lsr #8
ffff4ba0:	0a0d6425 	beq	0x34dc3c
ffff4ba4:	74614700 	strbtvc	r4, [r1], #-1792	; 0xfffff900
ffff4ba8:	65442065 	strbvs	r2, [r4, #-101]	; 0xffffff9b
ffff4bac:	2079616c 	rsbscs	r6, r9, ip, ror #2
ffff4bb0:	20202020 	eorcs	r2, r0, r0, lsr #32
ffff4bb4:	20202020 	eorcs	r2, r0, r0, lsr #32
ffff4bb8:	203a2020 	eorscs	r2, sl, r0, lsr #32
ffff4bbc:	202c6425 	eorcs	r6, ip, r5, lsr #8
ffff4bc0:	202c6425 	eorcs	r6, ip, r5, lsr #8
ffff4bc4:	202c6425 	eorcs	r6, ip, r5, lsr #8
ffff4bc8:	0a0d6425 	beq	0x34dc64
ffff4bcc:	23232300 			; <UNDEFINED> instruction: 0x23232300
ffff4bd0:	23232323 			; <UNDEFINED> instruction: 0x23232323
ffff4bd4:	23232323 			; <UNDEFINED> instruction: 0x23232323
ffff4bd8:	23232323 			; <UNDEFINED> instruction: 0x23232323
ffff4bdc:	23232323 			; <UNDEFINED> instruction: 0x23232323
ffff4be0:	23232323 			; <UNDEFINED> instruction: 0x23232323
ffff4be4:	23232323 			; <UNDEFINED> instruction: 0x23232323
ffff4be8:	23232323 			; <UNDEFINED> instruction: 0x23232323
ffff4bec:	23232323 			; <UNDEFINED> instruction: 0x23232323
ffff4bf0:	23232323 			; <UNDEFINED> instruction: 0x23232323
ffff4bf4:	23232323 			; <UNDEFINED> instruction: 0x23232323
ffff4bf8:	0d000a0d 	vstreq	s0, [r0, #-52]	; 0xffffffcc
ffff4bfc:	2323230a 			; <UNDEFINED> instruction: 0x2323230a
ffff4c00:	23232323 			; <UNDEFINED> instruction: 0x23232323
ffff4c04:	20232323 	eorcs	r2, r3, r3, lsr #6
ffff4c08:	65746147 	ldrbvs	r6, [r4, #-327]!	; 0xfffffeb9
ffff4c0c:	76654c20 	strbtvc	r4, [r5], -r0, lsr #24
ffff4c10:	6e696c65 	cdpvs	12, 6, cr6, cr9, cr5, {3}
ffff4c14:	202d2067 	eorcs	r2, sp, r7, rrx
ffff4c18:	72617453 	rsbvc	r7, r1, #1392508928	; 0x53000000
ffff4c1c:	23232074 			; <UNDEFINED> instruction: 0x23232074
ffff4c20:	23232323 			; <UNDEFINED> instruction: 0x23232323
ffff4c24:	23232323 			; <UNDEFINED> instruction: 0x23232323
ffff4c28:	47000a0d 	strmi	r0, [r0, -sp, lsl #20]
ffff4c2c:	3a657461 	bcc	0x1951db8
ffff4c30:	6c614320 	stclvs	3, cr4, [r1], #-128	; 0xffffff80
ffff4c34:	61726269 	cmnvs	r2, r9, ror #4
ffff4c38:	6e6f6974 			; <UNDEFINED> instruction: 0x6e6f6974
ffff4c3c:	73655220 	cmnvc	r5, #32, 4
ffff4c40:	656e6f70 	strbvs	r6, [lr, #-3952]!	; 0xfffff090
ffff4c44:	43206573 			; <UNDEFINED> instruction: 0x43206573
ffff4c48:	6b636568 	blvs	0x18ce1f0
ffff4c4c:	20676e69 	rsbcs	r6, r7, r9, ror #28
ffff4c50:	6166203a 	cmnvs	r6, sl, lsr r0
ffff4c54:	2e2e6c69 	cdpcs	12, 2, cr6, cr14, cr9, {3}
ffff4c58:	2121212e 			; <UNDEFINED> instruction: 0x2121212e
ffff4c5c:	0d000a0d 	vstreq	s0, [r0, #-52]	; 0xffffffcc
ffff4c60:	2323230a 			; <UNDEFINED> instruction: 0x2323230a
ffff4c64:	23232323 			; <UNDEFINED> instruction: 0x23232323
ffff4c68:	20232323 	eorcs	r2, r3, r3, lsr #6
ffff4c6c:	65746147 	ldrbvs	r6, [r4, #-327]!	; 0xfffffeb9
ffff4c70:	76654c20 	strbtvc	r4, [r5], -r0, lsr #24
ffff4c74:	6e696c65 	cdpvs	12, 6, cr6, cr9, cr5, {3}
ffff4c78:	202d2067 	eorcs	r2, sp, r7, rrx
ffff4c7c:	20646e45 	rsbcs	r6, r4, r5, asr #28
ffff4c80:	23232323 			; <UNDEFINED> instruction: 0x23232323
ffff4c84:	23232323 			; <UNDEFINED> instruction: 0x23232323
ffff4c88:	0a0d2323 	beq	0x33d91c
ffff4c8c:	230a0d00 	movwcs	r0, #44288	; 0xad00
ffff4c90:	20232323 	eorcs	r2, r3, r3, lsr #6
ffff4c94:	64616552 	strbtvs	r6, [r1], #-1362	; 0xfffffaae
ffff4c98:	20514420 	subscs	r4, r1, r0, lsr #8
ffff4c9c:	696c6143 	stmdbvs	ip!, {r0, r1, r6, r8, sp, lr}^
ffff4ca0:	74617262 	strbtvc	r7, [r1], #-610	; 0xfffffd9e
ffff4ca4:	206e6f69 	rsbcs	r6, lr, r9, ror #30
ffff4ca8:	6e49202d 	cdpvs	0, 4, cr2, cr9, cr13, {1}
ffff4cac:	6d726f66 	ldclvs	15, cr6, [r2, #-408]!	; 0xfffffe68
ffff4cb0:	6f697461 	svcvs	0x00697461
ffff4cb4:	2323206e 			; <UNDEFINED> instruction: 0x2323206e
ffff4cb8:	0a0d2323 	beq	0x33d94c
ffff4cbc:	61655200 	cmnvs	r5, r0, lsl #4
ffff4cc0:	51442064 	cmppl	r4, r4, rrx
ffff4cc4:	6c614320 	stclvs	3, cr4, [r1], #-128	; 0xffffff80
ffff4cc8:	61726269 	cmnvs	r2, r9, ror #4
ffff4ccc:	6e6f6974 			; <UNDEFINED> instruction: 0x6e6f6974
ffff4cd0:	21732520 	cmncs	r3, r0, lsr #10
ffff4cd4:	0a0d2021 	beq	0x33cd60
ffff4cd8:	494c5300 	stmdbmi	ip, {r8, r9, ip, lr}^
ffff4cdc:	30254543 	eorcc	r4, r5, r3, asr #10
ffff4ce0:	203a6432 	eorscs	r6, sl, r2, lsr r4
ffff4ce4:	64323025 	ldrtvs	r3, [r2], #-37	; 0xffffffdb
ffff4ce8:	25207e20 	strcs	r7, [r0, #-3616]!	; 0xfffff1e0
ffff4cec:	20643230 	rsbcs	r3, r4, r0, lsr r2
ffff4cf0:	3025207e 	eorcc	r2, r5, lr, ror r0
ffff4cf4:	28206432 	stmdacs	r0!, {r1, r4, r5, sl, sp, lr}
ffff4cf8:	676e6172 			; <UNDEFINED> instruction: 0x676e6172
ffff4cfc:	25203a65 	strcs	r3, [r0, #-2661]!	; 0xfffff59b
ffff4d00:	0d202964 			; <UNDEFINED> instruction: 0x0d202964
ffff4d04:	0a0d000a 	beq	0x334d34
ffff4d08:	23232323 			; <UNDEFINED> instruction: 0x23232323
ffff4d0c:	23232323 			; <UNDEFINED> instruction: 0x23232323
ffff4d10:	52202323 	eorpl	r2, r0, #-1946157056	; 0x8c000000
ffff4d14:	20646165 	rsbcs	r6, r4, r5, ror #2
ffff4d18:	43205144 			; <UNDEFINED> instruction: 0x43205144
ffff4d1c:	62696c61 	rsbvs	r6, r9, #24832	; 0x6100
ffff4d20:	69746172 	ldmdbvs	r4!, {r1, r4, r5, r6, r8, sp, lr}^
ffff4d24:	2d206e6f 	stccs	14, cr6, [r0, #-444]!	; 0xfffffe44
ffff4d28:	61745320 	cmnvs	r4, r0, lsr #6
ffff4d2c:	23207472 			; <UNDEFINED> instruction: 0x23207472
ffff4d30:	23232323 			; <UNDEFINED> instruction: 0x23232323
ffff4d34:	23232323 			; <UNDEFINED> instruction: 0x23232323
ffff4d38:	000a0d23 	andeq	r0, sl, r3, lsr #26
ffff4d3c:	44204452 	strtmi	r4, [r0], #-1106	; 0xfffffbae
ffff4d40:	41432051 	qdaddmi	r2, r1, r3
ffff4d44:	7453204c 	ldrbvc	r2, [r3], #-76	; 0xffffffb4
ffff4d48:	73757461 	cmnvc	r5, #1627389952	; 0x61000000
ffff4d4c:	65684320 	strbvs	r4, [r8, #-800]!	; 0xfffffce0
ffff4d50:	6e696b63 	vnmulvs.f64	d22, d9, d19
ffff4d54:	72652067 	rsbvc	r2, r5, #103	; 0x67
ffff4d58:	0d726f72 	ldcleq	15, cr6, [r2, #-456]!	; 0xfffffe38
ffff4d5c:	6552000a 	ldrbvs	r0, [r2, #-10]
ffff4d60:	44206461 	strtmi	r6, [r0], #-1121	; 0xfffffb9f
ffff4d64:	61432051 	qdaddvs	r2, r1, r3
ffff4d68:	7262696c 	rsbvc	r6, r2, #108, 18	; 0x1b0000
ffff4d6c:	6f697461 	svcvs	0x00697461
ffff4d70:	7453206e 	ldrbvc	r2, [r3], #-110	; 0xffffff92
ffff4d74:	73757461 	cmnvc	r5, #1627389952	; 0x61000000
ffff4d78:	7830203a 	ldmdavc	r0!, {r1, r3, r4, r5, sp}
ffff4d7c:	58383025 	ldmdapl	r8!, {r0, r2, r5, ip, sp}
ffff4d80:	000a0d20 	andeq	r0, sl, r0, lsr #26
ffff4d84:	23230a0d 			; <UNDEFINED> instruction: 0x23230a0d
ffff4d88:	23232323 			; <UNDEFINED> instruction: 0x23232323
ffff4d8c:	23232323 			; <UNDEFINED> instruction: 0x23232323
ffff4d90:	61655220 	cmnvs	r5, r0, lsr #4
ffff4d94:	51442064 	cmppl	r4, r4, rrx
ffff4d98:	6c614320 	stclvs	3, cr4, [r1], #-128	; 0xffffff80
ffff4d9c:	61726269 	cmnvs	r2, r9, ror #4
ffff4da0:	6e6f6974 			; <UNDEFINED> instruction: 0x6e6f6974
ffff4da4:	45202d20 	strmi	r2, [r0, #-3360]!	; 0xfffff2e0
ffff4da8:	2320646e 			; <UNDEFINED> instruction: 0x2320646e
ffff4dac:	23232323 			; <UNDEFINED> instruction: 0x23232323
ffff4db0:	23232323 			; <UNDEFINED> instruction: 0x23232323
ffff4db4:	000a0d23 	andeq	r0, sl, r3, lsr #26
ffff4db8:	494c535b 	stmdbmi	ip, {r0, r1, r3, r4, r6, r8, r9, ip, lr}^
ffff4dbc:	30254543 	eorcc	r4, r5, r3, asr #10
ffff4dc0:	205d6432 	subscs	r6, sp, r2, lsr r4
ffff4dc4:	74697257 	strbtvc	r7, [r9], #-599	; 0xfffffda9
ffff4dc8:	614c2065 	cmpvs	ip, r5, rrx
ffff4dcc:	636e6574 	cmnvs	lr, #116, 10	; 0x1d000000
ffff4dd0:	79432079 	stmdbvc	r3, {r0, r3, r4, r5, r6, sp}^
ffff4dd4:	20656c63 	rsbcs	r6, r5, r3, ror #24
ffff4dd8:	6425203a 	strtvs	r2, [r5], #-58	; 0xffffffc6
ffff4ddc:	30000a0d 	andcc	r0, r0, sp, lsl #20
ffff4de0:	6148203a 	cmpvs	r8, sl, lsr r0
ffff4de4:	4320666c 			; <UNDEFINED> instruction: 0x4320666c
ffff4de8:	656c6379 	strbvs	r6, [ip, #-889]!	; 0xfffffc87
ffff4dec:	3a31202c 	bcc	0xc3cea4
ffff4df0:	656e4f20 	strbvs	r4, [lr, #-3872]!	; 0xfffff0e0
ffff4df4:	63794320 	cmnvs	r9, #32, 6	; 0x80000000
ffff4df8:	202c656c 	eorcs	r6, ip, ip, ror #10
ffff4dfc:	54203a32 	strtpl	r3, [r0], #-2610	; 0xfffff5ce
ffff4e00:	43206f77 			; <UNDEFINED> instruction: 0x43206f77
ffff4e04:	656c6379 	strbvs	r6, [ip, #-889]!	; 0xfffffc87
ffff4e08:	000a0d20 	andeq	r0, sl, r0, lsr #26
ffff4e0c:	74697257 	strbtvc	r7, [r9], #-599	; 0xfffffda9
ffff4e10:	614c2065 	cmpvs	ip, r5, rrx
ffff4e14:	636e6574 	cmnvs	lr, #116, 10	; 0x1d000000
ffff4e18:	61432079 	hvcvs	12809	; 0x3209
ffff4e1c:	7262696c 	rsbvc	r6, r2, #108, 18	; 0x1b0000
ffff4e20:	6f697461 	svcvs	0x00697461
ffff4e24:	7325206e 			; <UNDEFINED> instruction: 0x7325206e
ffff4e28:	74657228 	strbtvc	r7, [r5], #-552	; 0xfffffdd8
ffff4e2c:	2578303d 	ldrbcs	r3, [r8, #-61]!	; 0xffffffc3
ffff4e30:	29583830 	ldmdbcs	r8, {r4, r5, fp, ip, sp}^
ffff4e34:	0d202121 	stfeqs	f2, [r0, #-132]!	; 0xffffff7c
ffff4e38:	0a0d000a 	beq	0x334e68
ffff4e3c:	23232323 			; <UNDEFINED> instruction: 0x23232323
ffff4e40:	23232323 			; <UNDEFINED> instruction: 0x23232323
ffff4e44:	57202323 	strpl	r2, [r0, -r3, lsr #6]!
ffff4e48:	65746972 	ldrbvs	r6, [r4, #-2418]!	; 0xfffff68e
ffff4e4c:	74614c20 	strbtvc	r4, [r1], #-3104	; 0xfffff3e0
ffff4e50:	79636e65 	stmdbvc	r3!, {r0, r2, r5, r6, r9, sl, fp, sp, lr}^
ffff4e54:	6c614320 	stclvs	3, cr4, [r1], #-128	; 0xffffff80
ffff4e58:	61726269 	cmnvs	r2, r9, ror #4
ffff4e5c:	6e6f6974 			; <UNDEFINED> instruction: 0x6e6f6974
ffff4e60:	53202d20 			; <UNDEFINED> instruction: 0x53202d20
ffff4e64:	74726174 	ldrbtvc	r6, [r2], #-372	; 0xfffffe8c
ffff4e68:	23232320 			; <UNDEFINED> instruction: 0x23232320
ffff4e6c:	23232323 			; <UNDEFINED> instruction: 0x23232323
ffff4e70:	0d232323 	stceq	3, cr2, [r3, #-140]!	; 0xffffff74
ffff4e74:	5257000a 	subspl	r0, r7, #10
ffff4e78:	74614c20 	strbtvc	r4, [r1], #-3104	; 0xfffff3e0
ffff4e7c:	79636e65 	stmdbvc	r3!, {r0, r2, r5, r6, r9, sl, fp, sp, lr}^
ffff4e80:	4c414320 	mcrrmi	3, 2, r4, r1, cr0
ffff4e84:	61745320 	cmnvs	r4, r0, lsr #6
ffff4e88:	20737574 	rsbscs	r7, r3, r4, ror r5
ffff4e8c:	63656843 	cmnvs	r5, #4390912	; 0x430000
ffff4e90:	676e696b 	strbvs	r6, [lr, -fp, ror #18]!
ffff4e94:	72726520 	rsbsvc	r6, r2, #32, 10	; 0x8000000
ffff4e98:	0a0d726f 	beq	0x35185c
ffff4e9c:	69725700 	ldmdbvs	r2!, {r8, r9, sl, ip, lr}^
ffff4ea0:	4c206574 	cfstr32mi	mvfx6, [r0], #-464	; 0xfffffe30
ffff4ea4:	6e657461 	cdpvs	4, 6, cr7, cr5, cr1, {3}
ffff4ea8:	43207963 			; <UNDEFINED> instruction: 0x43207963
ffff4eac:	62696c61 	rsbvs	r6, r9, #24832	; 0x6100
ffff4eb0:	69746172 	ldmdbvs	r4!, {r1, r4, r5, r6, r8, sp, lr}^
ffff4eb4:	4e206e6f 	cdpmi	14, 2, cr6, cr0, cr15, {3}
ffff4eb8:	4320746f 			; <UNDEFINED> instruction: 0x4320746f
ffff4ebc:	6c706d6f 	ldclvs	13, cr6, [r0], #-444	; 0xfffffe44
ffff4ec0:	21657465 	cmncs	r5, r5, ror #8
ffff4ec4:	72282021 	eorvc	r2, r8, #33	; 0x21
ffff4ec8:	253d7465 	ldrcs	r7, [sp, #-1125]!	; 0xfffffb9b
ffff4ecc:	29583830 	ldmdbcs	r8, {r4, r5, fp, ip, sp}^
ffff4ed0:	000a0d20 	andeq	r0, sl, r0, lsr #26
ffff4ed4:	23230a0d 			; <UNDEFINED> instruction: 0x23230a0d
ffff4ed8:	23232323 			; <UNDEFINED> instruction: 0x23232323
ffff4edc:	23232323 			; <UNDEFINED> instruction: 0x23232323
ffff4ee0:	69725720 	ldmdbvs	r2!, {r5, r8, r9, sl, ip, lr}^
ffff4ee4:	4c206574 	cfstr32mi	mvfx6, [r0], #-464	; 0xfffffe30
ffff4ee8:	6e657461 	cdpvs	4, 6, cr7, cr5, cr1, {3}
ffff4eec:	43207963 			; <UNDEFINED> instruction: 0x43207963
ffff4ef0:	62696c61 	rsbvs	r6, r9, #24832	; 0x6100
ffff4ef4:	69746172 	ldmdbvs	r4!, {r1, r4, r5, r6, r8, sp, lr}^
ffff4ef8:	2d206e6f 	stccs	14, cr6, [r0, #-444]!	; 0xfffffe44
ffff4efc:	646e4520 	strbtvs	r4, [lr], #-1312	; 0xfffffae0
ffff4f00:	23232320 			; <UNDEFINED> instruction: 0x23232320
ffff4f04:	23232323 			; <UNDEFINED> instruction: 0x23232323
ffff4f08:	0d232323 	stceq	3, cr2, [r3, #-140]!	; 0xffffff74
ffff4f0c:	0a0d000a 	beq	0x334f3c
ffff4f10:	20232323 	eorcs	r2, r3, r3, lsr #6
ffff4f14:	74697257 	strbtvc	r7, [r9], #-599	; 0xfffffda9
ffff4f18:	51442065 	cmppl	r4, r5, rrx
ffff4f1c:	6c614320 	stclvs	3, cr4, [r1], #-128	; 0xffffff80
ffff4f20:	61726269 	cmnvs	r2, r9, ror #4
ffff4f24:	6e6f6974 			; <UNDEFINED> instruction: 0x6e6f6974
ffff4f28:	49202d20 	stmdbmi	r0!, {r5, r8, sl, fp, sp}
ffff4f2c:	726f666e 	rsbvc	r6, pc, #115343360	; 0x6e00000
ffff4f30:	6974616d 	ldmdbvs	r4!, {r0, r2, r3, r5, r6, r8, sp, lr}^
ffff4f34:	23206e6f 			; <UNDEFINED> instruction: 0x23206e6f
ffff4f38:	0d232323 	stceq	3, cr2, [r3, #-140]!	; 0xffffff74
ffff4f3c:	7257000a 	subsvc	r0, r7, #10
ffff4f40:	20657469 	rsbcs	r7, r5, r9, ror #8
ffff4f44:	43205144 			; <UNDEFINED> instruction: 0x43205144
ffff4f48:	62696c61 	rsbvs	r6, r9, #24832	; 0x6100
ffff4f4c:	69746172 	ldmdbvs	r4!, {r1, r4, r5, r6, r8, sp, lr}^
ffff4f50:	25206e6f 	strcs	r6, [r0, #-3695]!	; 0xfffff191
ffff4f54:	20212173 	eorcs	r2, r1, r3, ror r1
ffff4f58:	53000a0d 	movwpl	r0, #2573	; 0xa0d
ffff4f5c:	4543494c 	strbmi	r4, [r3, #-2380]	; 0xfffff6b4
ffff4f60:	64323025 	ldrtvs	r3, [r2], #-37	; 0xffffffdb
ffff4f64:	6425203a 	strtvs	r2, [r5], #-58	; 0xffffffc6
ffff4f68:	25207e20 	strcs	r7, [r0, #-3616]!	; 0xfffff1e0
ffff4f6c:	207e2064 	rsbscs	r2, lr, r4, rrx
ffff4f70:	28206425 	stmdacs	r0!, {r0, r2, r5, sl, sp, lr}
ffff4f74:	676e6172 			; <UNDEFINED> instruction: 0x676e6172
ffff4f78:	25203a65 	strcs	r3, [r0, #-2661]!	; 0xfffff59b
ffff4f7c:	0d202964 			; <UNDEFINED> instruction: 0x0d202964
ffff4f80:	0a0d000a 	beq	0x334fb0
ffff4f84:	23232323 			; <UNDEFINED> instruction: 0x23232323
ffff4f88:	23232323 			; <UNDEFINED> instruction: 0x23232323
ffff4f8c:	57202323 	strpl	r2, [r0, -r3, lsr #6]!
ffff4f90:	65746972 	ldrbvs	r6, [r4, #-2418]!	; 0xfffff68e
ffff4f94:	20514420 	subscs	r4, r1, r0, lsr #8
ffff4f98:	696c6143 	stmdbvs	ip!, {r0, r1, r6, r8, sp, lr}^
ffff4f9c:	74617262 	strbtvc	r7, [r1], #-610	; 0xfffffd9e
ffff4fa0:	206e6f69 	rsbcs	r6, lr, r9, ror #30
ffff4fa4:	7453202d 	ldrbvc	r2, [r3], #-45	; 0xffffffd3
ffff4fa8:	20747261 	rsbscs	r7, r4, r1, ror #4
ffff4fac:	23232323 			; <UNDEFINED> instruction: 0x23232323
ffff4fb0:	23232323 			; <UNDEFINED> instruction: 0x23232323
ffff4fb4:	0a0d2323 	beq	0x33dc48
ffff4fb8:	20525700 	subscs	r5, r2, r0, lsl #14
ffff4fbc:	43205144 			; <UNDEFINED> instruction: 0x43205144
ffff4fc0:	53204c41 			; <UNDEFINED> instruction: 0x53204c41
ffff4fc4:	75746174 	ldrbvc	r6, [r4, #-372]!	; 0xfffffe8c
ffff4fc8:	68432073 	stmdavs	r3, {r0, r1, r4, r5, r6, sp}^
ffff4fcc:	696b6365 	stmdbvs	fp!, {r0, r2, r5, r6, r8, r9, sp, lr}^
ffff4fd0:	6520676e 	strvs	r6, [r0, #-1902]!	; 0xfffff892
ffff4fd4:	726f7272 	rsbvc	r7, pc, #536870919	; 0x20000007
ffff4fd8:	57000a0d 	strpl	r0, [r0, -sp, lsl #20]
ffff4fdc:	65746972 	ldrbvs	r6, [r4, #-2418]!	; 0xfffff68e
ffff4fe0:	20514420 	subscs	r4, r1, r0, lsr #8
ffff4fe4:	696c6143 	stmdbvs	ip!, {r0, r1, r6, r8, sp, lr}^
ffff4fe8:	74617262 	strbtvc	r7, [r1], #-610	; 0xfffffd9e
ffff4fec:	206e6f69 	rsbcs	r6, lr, r9, ror #30
ffff4ff0:	74617453 	strbtvc	r7, [r1], #-1107	; 0xfffffbad
ffff4ff4:	203a7375 	eorscs	r7, sl, r5, ror r3
ffff4ff8:	30257830 	eorcc	r7, r5, r0, lsr r8
ffff4ffc:	0d205838 	stceq	8, cr5, [r0, #-224]!	; 0xffffff20
ffff5000:	0a0d000a 	beq	0x335030
ffff5004:	23232323 			; <UNDEFINED> instruction: 0x23232323
ffff5008:	23232323 			; <UNDEFINED> instruction: 0x23232323
ffff500c:	57202323 	strpl	r2, [r0, -r3, lsr #6]!
ffff5010:	65746972 	ldrbvs	r6, [r4, #-2418]!	; 0xfffff68e
ffff5014:	20514420 	subscs	r4, r1, r0, lsr #8
ffff5018:	696c6143 	stmdbvs	ip!, {r0, r1, r6, r8, sp, lr}^
ffff501c:	74617262 	strbtvc	r7, [r1], #-610	; 0xfffffd9e
ffff5020:	206e6f69 	rsbcs	r6, lr, r9, ror #30
ffff5024:	6e45202d 	cdpvs	0, 4, cr2, cr5, cr13, {1}
ffff5028:	23232064 			; <UNDEFINED> instruction: 0x23232064
ffff502c:	23232323 			; <UNDEFINED> instruction: 0x23232323
ffff5030:	23232323 			; <UNDEFINED> instruction: 0x23232323
ffff5034:	0d000a0d 	vstreq	s0, [r0, #-52]	; 0xffffffcc
ffff5038:	5244440a 	subpl	r4, r4, #167772160	; 0xa000000
ffff503c:	4f502033 	svcmi	0x00502033
ffff5040:	6e492052 	mcrvs	0, 2, r2, cr9, cr2, {2}
ffff5044:	53207469 			; <UNDEFINED> instruction: 0x53207469
ffff5048:	74726174 	ldrbtvc	r6, [r2], #-372	; 0xfffffe8c
ffff504c:	50000a0d 	andpl	r0, r0, sp, lsl #20
ffff5050:	56205948 	strtpl	r5, [r0], -r8, asr #18
ffff5054:	69737265 	ldmdbvs	r3!, {r0, r2, r5, r6, r9, ip, sp, lr}^
ffff5058:	203a6e6f 	eorscs	r6, sl, pc, ror #28
ffff505c:	30257830 	eorcc	r7, r5, r0, lsr r8
ffff5060:	0a0d5838 	beq	0x34b148
ffff5064:	230a0d00 	movwcs	r0, #44288	; 0xad00
ffff5068:	23232323 			; <UNDEFINED> instruction: 0x23232323
ffff506c:	23232323 			; <UNDEFINED> instruction: 0x23232323
ffff5070:	654c2023 	strbvs	r2, [ip, #-35]	; 0xffffffdd
ffff5074:	696c6576 	stmdbvs	ip!, {r1, r2, r4, r5, r6, r8, sl, sp, lr}^
ffff5078:	2620676e 	strtcs	r6, [r0], -lr, ror #14
ffff507c:	61725420 	cmnvs	r2, r0, lsr #8
ffff5080:	6e696e69 	cdpvs	14, 6, cr6, cr9, cr9, {3}
ffff5084:	23232067 			; <UNDEFINED> instruction: 0x23232067
ffff5088:	23232323 			; <UNDEFINED> instruction: 0x23232323
ffff508c:	23232323 			; <UNDEFINED> instruction: 0x23232323
ffff5090:	44000a0d 	strmi	r0, [r0], #-2573	; 0xfffff5f3
ffff5094:	4c204c4c 	stcmi	12, cr4, [r0], #-304	; 0xfffffed0
ffff5098:	206b636f 	rsbcs	r6, fp, pc, ror #6
ffff509c:	756c6156 	strbvc	r6, [ip, #-342]!	; 0xfffffeaa
ffff50a0:	203d2065 	eorscs	r2, sp, r5, rrx
ffff50a4:	0d206425 	cfstrseq	mvf6, [r0, #-148]!	; 0xffffff6c
ffff50a8:	5f67000a 	svcpl	0x0067000a
ffff50ac:	635f5447 	cmpvs	pc, #1191182336	; 0x47000000
ffff50b0:	656c6379 	strbvs	r6, [ip, #-889]!	; 0xfffffc87
ffff50b4:	203d2020 	eorscs	r2, sp, r0, lsr #32
ffff50b8:	30257830 	eorcc	r7, r5, r0, lsr r8
ffff50bc:	0a0d5838 	beq	0x34b1a4
ffff50c0:	475f6700 	ldrbmi	r6, [pc, -r0, lsl #14]
ffff50c4:	6f635f54 	svcvs	0x00635f54
ffff50c8:	20206564 	eorcs	r6, r0, r4, ror #10
ffff50cc:	30203d20 	eorcc	r3, r0, r0, lsr #26
ffff50d0:	38302578 	ldmdacc	r0!, {r3, r4, r5, r6, r8, sl, sp}
ffff50d4:	000a0d58 	andeq	r0, sl, r8, asr sp
ffff50d8:	44525f67 	ldrbmi	r5, [r2], #-3943	; 0xfffff099
ffff50dc:	6d77765f 	ldclvs	6, cr7, [r7, #-380]!	; 0xfffffe84
ffff50e0:	20202063 	eorcs	r2, r0, r3, rrx
ffff50e4:	7830203d 	ldmdavc	r0!, {r0, r2, r3, r4, r5, sp}
ffff50e8:	58383025 	ldmdapl	r8!, {r0, r2, r5, ip, sp}
ffff50ec:	67000a0d 	strvs	r0, [r0, -sp, lsl #20]
ffff50f0:	5f52575f 	svcpl	0x0052575f
ffff50f4:	636d7776 	cmnvs	sp, #30932992	; 0x1d80000
ffff50f8:	3d202020 	stccc	0, cr2, [r0, #-128]!	; 0xffffff80
ffff50fc:	25783020 	ldrbcs	r3, [r8, #-32]!	; 0xffffffe0
ffff5100:	0d583830 	ldcleq	8, cr3, [r8, #-192]	; 0xffffff40
ffff5104:	4147000a 	cmpmi	r7, sl
ffff5108:	43204554 			; <UNDEFINED> instruction: 0x43204554
ffff510c:	20204359 	eorcs	r4, r0, r9, asr r3
ffff5110:	203d2020 	eorscs	r2, sp, r0, lsr #32
ffff5114:	30257830 	eorcc	r7, r5, r0, lsr r8
ffff5118:	0a0d5838 	beq	0x34b200
ffff511c:	54414700 	strbpl	r4, [r1], #-1792	; 0xfffff900
ffff5120:	4f432045 	svcmi	0x00432045
ffff5124:	20204544 	eorcs	r4, r0, r4, asr #10
ffff5128:	30203d20 	eorcc	r3, r0, r0, lsr #26
ffff512c:	38302578 	ldmdacc	r0!, {r3, r4, r5, r6, r8, sl, sp}
ffff5130:	000a0d58 	andeq	r0, sl, r8, asr sp
ffff5134:	64616552 	strbtvs	r6, [r1], #-1362	; 0xfffffaae
ffff5138:	51442020 	cmppl	r4, r0, lsr #32
ffff513c:	20202020 	eorcs	r2, r0, r0, lsr #32
ffff5140:	7830203d 	ldmdavc	r0!, {r0, r2, r3, r4, r5, sp}
ffff5144:	58383025 	ldmdapl	r8!, {r0, r2, r5, ip, sp}
ffff5148:	57000a0d 	strpl	r0, [r0, -sp, lsl #20]
ffff514c:	65746972 	ldrbvs	r6, [r4, #-2418]!	; 0xfffff68e
ffff5150:	20514420 	subscs	r4, r1, r0, lsr #8
ffff5154:	3d202020 	stccc	0, cr2, [r0, #-128]!	; 0xffffff80
ffff5158:	25783020 	ldrbcs	r3, [r8, #-32]!	; 0xffffffe0
ffff515c:	0d583830 	ldcleq	8, cr3, [r8, #-192]	; 0xffffff40
ffff5160:	4428000a 	strtmi	r0, [r8], #-10
ffff5164:	2c594850 	mrrccs	8, 5, r4, r9, cr0
ffff5168:	45524420 	ldrbmi	r4, [r2, #-1056]	; 0xfffffbe0
ffff516c:	43202958 			; <UNDEFINED> instruction: 0x43202958
ffff5170:	72746e6f 	rsbsvc	r6, r4, #1776	; 0x6f0
ffff5174:	656c6c6f 	strbvs	r6, [ip, #-3183]!	; 0xfffff391
ffff5178:	65522072 	ldrbvs	r2, [r2, #-114]	; 0xffffff8e
ffff517c:	20746573 	rsbscs	r6, r4, r3, ror r5
ffff5180:	6c696146 	stfvse	f6, [r9], #-280	; 0xfffffee8
ffff5184:	20216465 	eorcs	r6, r1, r5, ror #8
ffff5188:	5b000a0d 	blpl	0xffff79c4
ffff518c:	5d524444 	cfldrdpl	mvd4, [r2, #-272]	; 0xfffffef0
ffff5190:	20796850 	rsbscs	r6, r9, r0, asr r8
ffff5194:	74696e49 	strbtvc	r6, [r9], #-3657	; 0xfffff1b7
ffff5198:	696c6169 	stmdbvs	ip!, {r0, r3, r5, r6, r8, sp, lr}^
ffff519c:	0a0d657a 	beq	0x34e78c
ffff51a0:	69614600 	stmdbvs	r1!, {r9, sl, lr}^
ffff51a4:	6572756c 	ldrbvs	r7, [r2, #-1388]!	; 0xfffffa94
ffff51a8:	6e6f4400 	cdpvs	4, 6, cr4, cr15, cr0, {0}
ffff51ac:	654d0065 	strbvs	r0, [sp, #-101]	; 0xffffff9b
ffff51b0:	79726f6d 	ldmdbvc	r2!, {r0, r2, r3, r5, r6, r8, r9, sl, fp, sp, lr}^
ffff51b4:	696e4920 	stmdbvs	lr!, {r5, r8, fp, lr}^
ffff51b8:	6c616974 			; <UNDEFINED> instruction: 0x6c616974
ffff51bc:	20657a69 	rsbcs	r7, r5, r9, ror #20
ffff51c0:	29642528 	stmdbcs	r4!, {r3, r5, r8, sl, sp}^
ffff51c4:	2e732520 	cdpcs	5, 7, cr2, cr3, cr0, {1}
ffff51c8:	000a0a0d 	andeq	r0, sl, sp, lsl #20
ffff51cc:	c0052000 	andgt	r2, r5, r0
ffff51d0:	c0301000 	eorsgt	r1, r0, r0
ffff51d4:	c0008000 	andgt	r8, r0, r0
ffff51d8:	c0010000 	andgt	r0, r1, r0
ffff51dc:	c0067000 	andgt	r7, r6, r0
ffff51e0:	c0011000 	andgt	r1, r1, r0
ffff51e4:	c0010800 	andgt	r0, r1, r0, lsl #16
ffff51e8:	ffff0000 			; <UNDEFINED> instruction: 0xffff0000
ffff51ec:	ffff0000 			; <UNDEFINED> instruction: 0xffff0000
ffff51f0:	49544f4e 	ldmdbmi	r4, {r1, r2, r3, r6, r8, r9, sl, fp, lr}^
ffff51f4:	203a4543 	eorscs	r4, sl, r3, asr #10
ffff51f8:	49434320 	stmdbmi	r3, {r5, r8, r9, lr}^
ffff51fc:	20303034 	eorscs	r3, r0, r4, lsr r0
ffff5200:	74696e49 	strbtvc	r6, [r9], #-3657	; 0xfffff1b7
ffff5204:	696c6169 	stmdbvs	ip!, {r0, r3, r5, r6, r8, sp, lr}^
ffff5208:	0d21657a 	cfstr32eq	mvfx6, [r1, #-488]!	; 0xfffffe18
ffff520c:	4f4e000a 	svcmi	0x004e000a
ffff5210:	45434954 	strbmi	r4, [r3, #-2388]	; 0xfffff6ac
ffff5214:	2820203a 	stmdacs	r0!, {r1, r3, r4, r5, sp}
ffff5218:	4444504c 	strbmi	r5, [r4], #-76	; 0xffffffb4
ffff521c:	442f3352 	strtmi	r3, [pc], #-850	; 0xffff5224
ffff5220:	29335244 	ldmdbcs	r3!, {r2, r6, r9, ip, lr}
ffff5224:	6c655320 	stclvs	3, cr5, [r5], #-128	; 0xffffff80
ffff5228:	65522d66 	ldrbvs	r2, [r2, #-3430]	; 0xfffff29a
ffff522c:	73657266 	cmnvc	r5, #1610612742	; 0x60000006
ffff5230:	78452068 	stmdavc	r5, {r3, r5, r6, sp}^
ffff5234:	44207469 	strtmi	r7, [r0], #-1129	; 0xfffffb97
ffff5238:	21656e6f 	cmncs	r5, pc, ror #28
ffff523c:	25783028 	ldrbcs	r3, [r8, #-40]!	; 0xffffffd8
ffff5240:	29583830 	ldmdbcs	r8, {r4, r5, fp, ip, sp}^
ffff5244:	45000a0d 	strmi	r0, [r0, #-2573]	; 0xfffff5f3
ffff5248:	524f5252 	subpl	r5, pc, #536870917	; 0x20000005
ffff524c:	2020203a 	eorcs	r2, r0, sl, lsr r0
ffff5250:	20646e32 	rsbcs	r6, r4, r2, lsr lr
ffff5254:	746f6f62 	strbtvc	r6, [pc], #-3938	; 0xffff525c
ffff5258:	61656820 	cmnvs	r5, r0, lsr #16
ffff525c:	20726564 	rsbscs	r6, r2, r4, ror #10
ffff5260:	69207369 	stmdbvs	r0!, {r0, r3, r5, r6, r8, r9, ip, sp, lr}
ffff5264:	6c61766e 	stclvs	6, cr7, [r1], #-440	; 0xfffffe48
ffff5268:	202c6469 	eorcs	r6, ip, r9, ror #8
ffff526c:	61656c70 	smcvs	22208	; 0x56c0
ffff5270:	63206573 			; <UNDEFINED> instruction: 0x63206573
ffff5274:	6b636568 	blvs	0x18ce81c
ffff5278:	20746920 	rsbscs	r6, r4, r0, lsr #18
ffff527c:	2174756f 	cmncs	r4, pc, ror #10
ffff5280:	4c000a0d 			; <UNDEFINED> instruction: 0x4c000a0d
ffff5284:	6964616f 	stmdbvs	r4!, {r0, r1, r2, r3, r5, r6, r8, sp, lr}^
ffff5288:	6620676e 	strtvs	r6, [r0], -lr, ror #14
ffff528c:	206d6f72 	rsbcs	r6, sp, r2, ror pc
ffff5290:	6d6d6473 	cfstrdvs	mvd6, [sp, #-460]!	; 0xfffffe34
ffff5294:	2e2e2e63 	cdpcs	14, 2, cr2, cr14, cr3, {3}
ffff5298:	20000a0d 	andcs	r0, r0, sp, lsl #20
ffff529c:	67616d49 	strbvs	r6, [r1, -r9, asr #26]!
ffff52a0:	6f4c2065 	svcvs	0x004c2065
ffff52a4:	6e696461 	cdpvs	4, 6, cr6, cr9, cr1, {3}
ffff52a8:	6f442067 	svcvs	0x00442067
ffff52ac:	0d21656e 	cfstr32eq	mvfx6, [r1, #-440]!	; 0xfffffe48
ffff52b0:	614c000a 	cmpvs	ip, sl
ffff52b4:	68636e75 	stmdavs	r3!, {r0, r2, r4, r5, r6, r9, sl, fp, sp, lr}^
ffff52b8:	206f7420 	rsbcs	r7, pc, r0, lsr #8
ffff52bc:	30257830 	eorcc	r7, r5, r0, lsr r8
ffff52c0:	0a0d5838 	beq	0x34b3a8
ffff52c4:	52524500 	subspl	r4, r2, #0, 10
ffff52c8:	203a524f 	eorscs	r5, sl, pc, asr #4
ffff52cc:	6d492020 	stclvs	0, cr2, [r9, #-128]	; 0xffffff80
ffff52d0:	20656761 	rsbcs	r6, r5, r1, ror #14
ffff52d4:	64616f4c 	strbtvs	r6, [r1], #-3916	; 0xfffff0b4
ffff52d8:	20676e69 	rsbcs	r6, r7, r9, ror #28
ffff52dc:	6c696146 	stfvse	f6, [r9], #-280	; 0xfffffee8
ffff52e0:	20657275 	rsbcs	r7, r5, r5, ror r2
ffff52e4:	20797254 	rsbscs	r7, r9, r4, asr r2
ffff52e8:	55206f74 	strpl	r6, [r0, #-3956]!	; 0xfffff08c
ffff52ec:	62204253 	eorvs	r4, r0, #805306373	; 0x30000005
ffff52f0:	0d746f6f 	ldcleq	15, cr6, [r4, #-444]!	; 0xfffffe44
ffff52f4:	0fff000a 	svceq	0x00ff000a
ffff52f8:	0e000000 	cdpeq	0, 0, cr0, cr0, cr0, {0}
ffff52fc:	0d000000 	stceq	0, cr0, [r0, #-0]
ffff5300:	0c000000 	stceq	0, cr0, [r0], {-0}
ffff5304:	0b000000 	bleq	0xffff530c
ffff5308:	0a000000 	beq	0xffff5310
ffff530c:	09000000 	stmdbeq	r0, {}	; <UNPREDICTABLE>
ffff5310:	08000000 	stmdaeq	r0, {}	; <UNPREDICTABLE>
ffff5314:	07000000 	streq	r0, [r0, -r0]
ffff5318:	06000000 	streq	r0, [r0], -r0
ffff531c:	05000000 	streq	r0, [r0, #-0]
ffff5320:	04000000 	streq	r0, [r0], #-0
ffff5324:	03000000 	movweq	r0, #0
ffff5328:	02000000 	andeq	r0, r0, #0
ffff532c:	01000000 	mrseq	r0, (UNDEF: 0)
ffff5330:	00000000 	andeq	r0, r0, r0
ffff5334:	00000000 	andeq	r0, r0, r0
ffff5338:	c0062000 	andgt	r2, r6, r0
ffff533c:	c0068000 	andgt	r8, r6, r0
ffff5340:	c0069000 	andgt	r9, r6, r0
ffff5344:	c00c5000 	andgt	r5, ip, r0
ffff5348:	c00cc000 	andgt	ip, ip, r0
ffff534c:	c00cd000 	andgt	sp, ip, r0
ffff5350:	00000027 	andeq	r0, r0, r7, lsr #32
ffff5354:	00000028 	andeq	r0, r0, r8, lsr #32
ffff5358:	00000029 	andeq	r0, r0, r9, lsr #32
ffff535c:	20746567 	rsbscs	r6, r4, r7, ror #10
ffff5360:	636f6c63 	cmnvs	pc, #25344	; 0x6300
ffff5364:	6170206b 	cmnvs	r0, fp, rrx
ffff5368:	206d6172 	rsbcs	r6, sp, r2, ror r1
ffff536c:	6c696166 	stfvse	f6, [r9], #-408	; 0xfffffe68
ffff5370:	0a0d2e65 	beq	0x340d0c
ffff5374:	72614300 	rsbvc	r4, r1, #0, 6
ffff5378:	64492064 	strbvs	r2, [r9], #-100	; 0xffffff9c
ffff537c:	69746e65 	ldmdbvs	r4!, {r0, r2, r5, r6, r9, sl, fp, sp, lr}^
ffff5380:	46207966 	strtmi	r7, [r0], -r6, ror #18
ffff5384:	756c6961 	strbvc	r6, [ip, #-2401]!	; 0xfffff69f
ffff5388:	0a0d6572 	beq	0x34e958
ffff538c:	6e614300 	cdpvs	3, 6, cr4, cr1, cr0, {0}
ffff5390:	20746f6e 	rsbscs	r6, r4, lr, ror #30
ffff5394:	65746544 	ldrbvs	r6, [r4, #-1348]!	; 0xfffffabc
ffff5398:	53207463 			; <UNDEFINED> instruction: 0x53207463
ffff539c:	434d4d44 	movtmi	r4, #56644	; 0xdd44
ffff53a0:	63000a0d 	movwvs	r0, #2573	; 0xa0d
ffff53a4:	6f6e6e61 	svcvs	0x006e6e61
ffff53a8:	65722074 	ldrbvs	r2, [r2, #-116]!	; 0xffffff8c
ffff53ac:	62206461 	eorvs	r6, r0, #1627389952	; 0x61000000
ffff53b0:	20746f6f 	rsbscs	r6, r4, pc, ror #30
ffff53b4:	64616568 	strbtvs	r6, [r1], #-1384	; 0xfffffa98
ffff53b8:	20217265 	eorcs	r7, r1, r5, ror #4
ffff53bc:	4d4d4453 	cfstrdmi	mvd4, [sp, #-332]	; 0xfffffeb4
ffff53c0:	6f622043 	svcvs	0x00622043
ffff53c4:	6620746f 	strtvs	r7, [r0], -pc, ror #8
ffff53c8:	756c6961 	strbvc	r6, [ip, #-2401]!	; 0xfffff69f
ffff53cc:	0a0d6572 	beq	0x34e99c
ffff53d0:	47495300 	strbmi	r5, [r9, -r0, lsl #6]
ffff53d4:	5554414e 	ldrbpl	r4, [r4, #-334]	; 0xfffffeb2
ffff53d8:	203a4552 	eorscs	r4, sl, r2, asr r5
ffff53dc:	30257830 	eorcc	r7, r5, r0, lsr r8
ffff53e0:	0d205838 	stceq	8, cr5, [r0, #-224]!	; 0xffffff20
ffff53e4:	6472330a 	ldrbtvs	r3, [r2], #-778	; 0xfffffcf6
ffff53e8:	6f6f6220 	svcvs	0x006f6220
ffff53ec:	69532074 	ldmdbvs	r3, {r2, r4, r5, r6, sp}^
ffff53f0:	7574616e 	ldrbvc	r6, [r4, #-366]!	; 0xfffffe92
ffff53f4:	69206572 	stmdbvs	r0!, {r1, r4, r5, r6, r8, sl, sp, lr}
ffff53f8:	72772073 	rsbsvc	r2, r7, #115	; 0x73
ffff53fc:	21676e6f 	cmncs	r7, pc, ror #28
ffff5400:	4d445320 	stclmi	3, cr5, [r4, #-128]	; 0xffffff80
ffff5404:	6220434d 	eorvs	r4, r0, #872415233	; 0x34000001
ffff5408:	20746f6f 	rsbscs	r6, r4, pc, ror #30
ffff540c:	6c696166 	stfvse	f6, [r9], #-408	; 0xfffffe68
ffff5410:	0d657275 	sfmeq	f7, 2, [r5, #-468]!	; 0xfffffe2c
ffff5414:	6d49000a 	stclvs	0, cr0, [r9, #-40]	; 0xffffffd8
ffff5418:	20656761 	rsbcs	r6, r5, r1, ror #14
ffff541c:	64616552 	strbtvs	r6, [r1], #-1362	; 0xfffffaae
ffff5420:	69614620 	stmdbvs	r1!, {r5, r9, sl, lr}^
ffff5424:	6572756c 	ldrbvs	r7, [r2, #-1388]!	; 0xfffffa94
ffff5428:	00000a0d 	andeq	r0, r0, sp, lsl #20
ffff542c:	c0010000 	andgt	r0, r1, r0
